
NTI_AVR_Drivers.elf:     file format elf32-avr

Sections:
Idx Name          Size      VMA       LMA       File off  Algn
  0 .text         00000ea6  00000000  00000000  00000094  2**1
                  CONTENTS, ALLOC, LOAD, READONLY, CODE
  1 .data         00000020  00800060  00000ea6  00000f3a  2**0
                  CONTENTS, ALLOC, LOAD, DATA
  2 .bss          0000003a  00800080  00800080  00000f5a  2**0
                  ALLOC
  3 .comment      00000030  00000000  00000000  00000f5a  2**0
                  CONTENTS, READONLY
  4 .note.gnu.avr.deviceinfo 0000003c  00000000  00000000  00000f8c  2**2
                  CONTENTS, READONLY
  5 .debug_aranges 00000358  00000000  00000000  00000fc8  2**0
                  CONTENTS, READONLY, DEBUGGING
  6 .debug_info   000032f7  00000000  00000000  00001320  2**0
                  CONTENTS, READONLY, DEBUGGING
  7 .debug_abbrev 00001302  00000000  00000000  00004617  2**0
                  CONTENTS, READONLY, DEBUGGING
  8 .debug_line   00001a60  00000000  00000000  00005919  2**0
                  CONTENTS, READONLY, DEBUGGING
  9 .debug_frame  000009ec  00000000  00000000  0000737c  2**2
                  CONTENTS, READONLY, DEBUGGING
 10 .debug_str    0000151b  00000000  00000000  00007d68  2**0
                  CONTENTS, READONLY, DEBUGGING
 11 .debug_loc    000020d5  00000000  00000000  00009283  2**0
                  CONTENTS, READONLY, DEBUGGING
 12 .debug_ranges 000002a8  00000000  00000000  0000b358  2**0
                  CONTENTS, READONLY, DEBUGGING

Disassembly of section .text:

00000000 <__vectors>:
   0:	0c 94 2a 00 	jmp	0x54	; 0x54 <__ctors_end>
   4:	0c 94 7e 03 	jmp	0x6fc	; 0x6fc <__vector_1>
   8:	0c 94 a7 03 	jmp	0x74e	; 0x74e <__vector_2>
   c:	0c 94 d0 03 	jmp	0x7a0	; 0x7a0 <__vector_3>
  10:	0c 94 47 00 	jmp	0x8e	; 0x8e <__bad_interrupt>
  14:	0c 94 47 00 	jmp	0x8e	; 0x8e <__bad_interrupt>
  18:	0c 94 9f 05 	jmp	0xb3e	; 0xb3e <__vector_6>
  1c:	0c 94 76 05 	jmp	0xaec	; 0xaec <__vector_7>
  20:	0c 94 47 00 	jmp	0x8e	; 0x8e <__bad_interrupt>
  24:	0c 94 0b 05 	jmp	0xa16	; 0xa16 <__vector_9>
  28:	0c 94 7e 04 	jmp	0x8fc	; 0x8fc <__vector_10>
  2c:	0c 94 25 04 	jmp	0x84a	; 0x84a <__vector_11>
  30:	0c 94 fb 03 	jmp	0x7f6	; 0x7f6 <__vector_12>
  34:	0c 94 c8 05 	jmp	0xb90	; 0xb90 <__vector_13>
  38:	0c 94 47 00 	jmp	0x8e	; 0x8e <__bad_interrupt>
  3c:	0c 94 47 00 	jmp	0x8e	; 0x8e <__bad_interrupt>
  40:	0c 94 e5 02 	jmp	0x5ca	; 0x5ca <__vector_16>
  44:	0c 94 47 00 	jmp	0x8e	; 0x8e <__bad_interrupt>
  48:	0c 94 47 00 	jmp	0x8e	; 0x8e <__bad_interrupt>
  4c:	0c 94 47 00 	jmp	0x8e	; 0x8e <__bad_interrupt>
  50:	0c 94 47 00 	jmp	0x8e	; 0x8e <__bad_interrupt>

00000054 <__ctors_end>:
  54:	11 24       	eor	r1, r1
  56:	1f be       	out	0x3f, r1	; 63
  58:	cf e5       	ldi	r28, 0x5F	; 95
  5a:	d8 e0       	ldi	r29, 0x08	; 8
  5c:	de bf       	out	0x3e, r29	; 62
  5e:	cd bf       	out	0x3d, r28	; 61

00000060 <__do_copy_data>:
  60:	10 e0       	ldi	r17, 0x00	; 0
  62:	a0 e6       	ldi	r26, 0x60	; 96
  64:	b0 e0       	ldi	r27, 0x00	; 0
  66:	e6 ea       	ldi	r30, 0xA6	; 166
  68:	fe e0       	ldi	r31, 0x0E	; 14
  6a:	02 c0       	rjmp	.+4      	; 0x70 <__do_copy_data+0x10>
  6c:	05 90       	lpm	r0, Z+
  6e:	0d 92       	st	X+, r0
  70:	a0 38       	cpi	r26, 0x80	; 128
  72:	b1 07       	cpc	r27, r17
  74:	d9 f7       	brne	.-10     	; 0x6c <__do_copy_data+0xc>

00000076 <__do_clear_bss>:
  76:	20 e0       	ldi	r18, 0x00	; 0
  78:	a0 e8       	ldi	r26, 0x80	; 128
  7a:	b0 e0       	ldi	r27, 0x00	; 0
  7c:	01 c0       	rjmp	.+2      	; 0x80 <.do_clear_bss_start>

0000007e <.do_clear_bss_loop>:
  7e:	1d 92       	st	X+, r1

00000080 <.do_clear_bss_start>:
  80:	aa 3b       	cpi	r26, 0xBA	; 186
  82:	b2 07       	cpc	r27, r18
  84:	e1 f7       	brne	.-8      	; 0x7e <.do_clear_bss_loop>
  86:	0e 94 49 00 	call	0x92	; 0x92 <main>
  8a:	0c 94 51 07 	jmp	0xea2	; 0xea2 <_exit>

0000008e <__bad_interrupt>:
  8e:	0c 94 00 00 	jmp	0	; 0x0 <__vectors>

00000092 <main>:

int main(void) {

	
	
	GIE_enable();
  92:	0e 94 f9 03 	call	0x7f2	; 0x7f2 <GIE_enable>
	H_LCD_void_Init();
  96:	0e 94 3f 01 	call	0x27e	; 0x27e <H_LCD_void_Init>
	
	Ultrasonic_init();
  9a:	0e 94 58 02 	call	0x4b0	; 0x4b0 <Ultrasonic_init>
	
	


	while (1) {
		H_LCD_void_clearScreen();
  9e:	0e 94 39 02 	call	0x472	; 0x472 <H_LCD_void_clearScreen>
		u16 reading = Ultrasonic_readDistance();
  a2:	0e 94 c3 02 	call	0x586	; 0x586 <Ultrasonic_readDistance>
		H_LCD_void_sendIntNum(reading);
  a6:	bc 01       	movw	r22, r24
  a8:	80 e0       	ldi	r24, 0x00	; 0
  aa:	90 e0       	ldi	r25, 0x00	; 0
  ac:	0e 94 1a 02 	call	0x434	; 0x434 <H_LCD_void_sendIntNum>
	#else
		//round up by default
		__ticks_dc = (uint32_t)(ceil(fabs(__tmp)));
	#endif

	__builtin_avr_delay_cycles(__ticks_dc);
  b0:	2f ef       	ldi	r18, 0xFF	; 255
  b2:	84 e3       	ldi	r24, 0x34	; 52
  b4:	9c e0       	ldi	r25, 0x0C	; 12
  b6:	21 50       	subi	r18, 0x01	; 1
  b8:	80 40       	sbci	r24, 0x00	; 0
  ba:	90 40       	sbci	r25, 0x00	; 0
  bc:	e1 f7       	brne	.-8      	; 0xb6 <main+0x24>
  be:	00 c0       	rjmp	.+0      	; 0xc0 <main+0x2e>
  c0:	00 00       	nop
  c2:	ed cf       	rjmp	.-38     	; 0x9e <main+0xc>

000000c4 <H_LCD_void_latchByte>:
void H_LCD_void_displayCustomChar(u8 copy_u8charCode){

	H_LCD_void_sendCommand(0xc0);
	H_LCD_void_sendData(copy_u8charCode);

}
  c4:	0f 93       	push	r16
  c6:	1f 93       	push	r17
  c8:	cf 93       	push	r28
  ca:	df 93       	push	r29
  cc:	cd b7       	in	r28, 0x3d	; 61
  ce:	de b7       	in	r29, 0x3e	; 62
  d0:	64 97       	sbiw	r28, 0x14	; 20
  d2:	0f b6       	in	r0, 0x3f	; 63
  d4:	f8 94       	cli
  d6:	de bf       	out	0x3e, r29	; 62
  d8:	0f be       	out	0x3f, r0	; 63
  da:	cd bf       	out	0x3d, r28	; 61
  dc:	08 2f       	mov	r16, r24
  de:	81 e0       	ldi	r24, 0x01	; 1
  e0:	89 83       	std	Y+1, r24	; 0x01
  e2:	1a 82       	std	Y+2, r1	; 0x02
  e4:	8b 83       	std	Y+3, r24	; 0x03
  e6:	04 fb       	bst	r16, 4
  e8:	99 27       	eor	r25, r25
  ea:	90 f9       	bld	r25, 0
  ec:	9c 83       	std	Y+4, r25	; 0x04
  ee:	8d 83       	std	Y+5, r24	; 0x05
  f0:	8e 83       	std	Y+6, r24	; 0x06
  f2:	8f 83       	std	Y+7, r24	; 0x07
  f4:	05 fb       	bst	r16, 5
  f6:	99 27       	eor	r25, r25
  f8:	90 f9       	bld	r25, 0
  fa:	98 87       	std	Y+8, r25	; 0x08
  fc:	89 87       	std	Y+9, r24	; 0x09
  fe:	92 e0       	ldi	r25, 0x02	; 2
 100:	9a 87       	std	Y+10, r25	; 0x0a
 102:	8b 87       	std	Y+11, r24	; 0x0b
 104:	06 fb       	bst	r16, 6
 106:	99 27       	eor	r25, r25
 108:	90 f9       	bld	r25, 0
 10a:	9c 87       	std	Y+12, r25	; 0x0c
 10c:	8d 87       	std	Y+13, r24	; 0x0d
 10e:	94 e0       	ldi	r25, 0x04	; 4
 110:	9e 87       	std	Y+14, r25	; 0x0e
 112:	8f 87       	std	Y+15, r24	; 0x0f
 114:	80 2f       	mov	r24, r16
 116:	88 1f       	adc	r24, r24
 118:	88 27       	eor	r24, r24
 11a:	88 1f       	adc	r24, r24
 11c:	88 8b       	std	Y+16, r24	; 0x10
 11e:	10 e0       	ldi	r17, 0x00	; 0
 120:	0f c0       	rjmp	.+30     	; 0x140 <H_LCD_void_latchByte+0x7c>
 122:	81 2f       	mov	r24, r17
 124:	90 e0       	ldi	r25, 0x00	; 0
 126:	88 0f       	add	r24, r24
 128:	99 1f       	adc	r25, r25
 12a:	88 0f       	add	r24, r24
 12c:	99 1f       	adc	r25, r25
 12e:	21 e0       	ldi	r18, 0x01	; 1
 130:	30 e0       	ldi	r19, 0x00	; 0
 132:	2c 0f       	add	r18, r28
 134:	3d 1f       	adc	r19, r29
 136:	82 0f       	add	r24, r18
 138:	93 1f       	adc	r25, r19
 13a:	0e 94 3c 03 	call	0x678	; 0x678 <DIO_U8SetPinValue>
 13e:	1f 5f       	subi	r17, 0xFF	; 255
 140:	14 30       	cpi	r17, 0x04	; 4
 142:	78 f3       	brcs	.-34     	; 0x122 <H_LCD_void_latchByte+0x5e>
 144:	19 8a       	std	Y+17, r1	; 0x11
 146:	82 e0       	ldi	r24, 0x02	; 2
 148:	8a 8b       	std	Y+18, r24	; 0x12
 14a:	1c 8a       	std	Y+20, r1	; 0x14
 14c:	89 ef       	ldi	r24, 0xF9	; 249
 14e:	90 e0       	ldi	r25, 0x00	; 0
 150:	01 97       	sbiw	r24, 0x01	; 1
 152:	f1 f7       	brne	.-4      	; 0x150 <H_LCD_void_latchByte+0x8c>
 154:	00 c0       	rjmp	.+0      	; 0x156 <H_LCD_void_latchByte+0x92>
 156:	00 00       	nop
 158:	ce 01       	movw	r24, r28
 15a:	41 96       	adiw	r24, 0x11	; 17
 15c:	0e 94 3c 03 	call	0x678	; 0x678 <DIO_U8SetPinValue>
 160:	e9 ef       	ldi	r30, 0xF9	; 249
 162:	f0 e0       	ldi	r31, 0x00	; 0
 164:	31 97       	sbiw	r30, 0x01	; 1
 166:	f1 f7       	brne	.-4      	; 0x164 <H_LCD_void_latchByte+0xa0>
 168:	00 c0       	rjmp	.+0      	; 0x16a <H_LCD_void_latchByte+0xa6>
 16a:	00 00       	nop
 16c:	81 e0       	ldi	r24, 0x01	; 1
 16e:	8c 8b       	std	Y+20, r24	; 0x14
 170:	ce 01       	movw	r24, r28
 172:	41 96       	adiw	r24, 0x11	; 17
 174:	0e 94 3c 03 	call	0x678	; 0x678 <DIO_U8SetPinValue>
 178:	89 ef       	ldi	r24, 0xF9	; 249
 17a:	90 e0       	ldi	r25, 0x00	; 0
 17c:	01 97       	sbiw	r24, 0x01	; 1
 17e:	f1 f7       	brne	.-4      	; 0x17c <H_LCD_void_latchByte+0xb8>
 180:	00 c0       	rjmp	.+0      	; 0x182 <H_LCD_void_latchByte+0xbe>
 182:	00 00       	nop
 184:	10 e0       	ldi	r17, 0x00	; 0
 186:	1a c0       	rjmp	.+52     	; 0x1bc <H_LCD_void_latchByte+0xf8>
 188:	81 2f       	mov	r24, r17
 18a:	90 e0       	ldi	r25, 0x00	; 0
 18c:	20 2f       	mov	r18, r16
 18e:	30 e0       	ldi	r19, 0x00	; 0
 190:	01 2e       	mov	r0, r17
 192:	02 c0       	rjmp	.+4      	; 0x198 <H_LCD_void_latchByte+0xd4>
 194:	35 95       	asr	r19
 196:	27 95       	ror	r18
 198:	0a 94       	dec	r0
 19a:	e2 f7       	brpl	.-8      	; 0x194 <H_LCD_void_latchByte+0xd0>
 19c:	88 0f       	add	r24, r24
 19e:	99 1f       	adc	r25, r25
 1a0:	88 0f       	add	r24, r24
 1a2:	99 1f       	adc	r25, r25
 1a4:	e1 e0       	ldi	r30, 0x01	; 1
 1a6:	f0 e0       	ldi	r31, 0x00	; 0
 1a8:	ec 0f       	add	r30, r28
 1aa:	fd 1f       	adc	r31, r29
 1ac:	8e 0f       	add	r24, r30
 1ae:	9f 1f       	adc	r25, r31
 1b0:	21 70       	andi	r18, 0x01	; 1
 1b2:	fc 01       	movw	r30, r24
 1b4:	23 83       	std	Z+3, r18	; 0x03
 1b6:	0e 94 3c 03 	call	0x678	; 0x678 <DIO_U8SetPinValue>
 1ba:	1f 5f       	subi	r17, 0xFF	; 255
 1bc:	14 30       	cpi	r17, 0x04	; 4
 1be:	20 f3       	brcs	.-56     	; 0x188 <H_LCD_void_latchByte+0xc4>
 1c0:	89 ef       	ldi	r24, 0xF9	; 249
 1c2:	90 e0       	ldi	r25, 0x00	; 0
 1c4:	01 97       	sbiw	r24, 0x01	; 1
 1c6:	f1 f7       	brne	.-4      	; 0x1c4 <H_LCD_void_latchByte+0x100>
 1c8:	00 c0       	rjmp	.+0      	; 0x1ca <H_LCD_void_latchByte+0x106>
 1ca:	00 00       	nop
 1cc:	1c 8a       	std	Y+20, r1	; 0x14
 1ce:	ce 01       	movw	r24, r28
 1d0:	41 96       	adiw	r24, 0x11	; 17
 1d2:	0e 94 3c 03 	call	0x678	; 0x678 <DIO_U8SetPinValue>
 1d6:	e9 ef       	ldi	r30, 0xF9	; 249
 1d8:	f0 e0       	ldi	r31, 0x00	; 0
 1da:	31 97       	sbiw	r30, 0x01	; 1
 1dc:	f1 f7       	brne	.-4      	; 0x1da <H_LCD_void_latchByte+0x116>
 1de:	00 c0       	rjmp	.+0      	; 0x1e0 <H_LCD_void_latchByte+0x11c>
 1e0:	00 00       	nop
 1e2:	64 96       	adiw	r28, 0x14	; 20
 1e4:	0f b6       	in	r0, 0x3f	; 63
 1e6:	f8 94       	cli
 1e8:	de bf       	out	0x3e, r29	; 62
 1ea:	0f be       	out	0x3f, r0	; 63
 1ec:	cd bf       	out	0x3d, r28	; 61
 1ee:	df 91       	pop	r29
 1f0:	cf 91       	pop	r28
 1f2:	1f 91       	pop	r17
 1f4:	0f 91       	pop	r16
 1f6:	08 95       	ret

000001f8 <H_LCD_void_sendCommand>:
 1f8:	0f 93       	push	r16
 1fa:	1f 93       	push	r17
 1fc:	cf 93       	push	r28
 1fe:	df 93       	push	r29
 200:	cd b7       	in	r28, 0x3d	; 61
 202:	de b7       	in	r29, 0x3e	; 62
 204:	28 97       	sbiw	r28, 0x08	; 8
 206:	0f b6       	in	r0, 0x3f	; 63
 208:	f8 94       	cli
 20a:	de bf       	out	0x3e, r29	; 62
 20c:	0f be       	out	0x3f, r0	; 63
 20e:	cd bf       	out	0x3d, r28	; 61
 210:	08 2f       	mov	r16, r24
 212:	88 e0       	ldi	r24, 0x08	; 8
 214:	e0 e6       	ldi	r30, 0x60	; 96
 216:	f0 e0       	ldi	r31, 0x00	; 0
 218:	de 01       	movw	r26, r28
 21a:	11 96       	adiw	r26, 0x01	; 1
 21c:	01 90       	ld	r0, Z+
 21e:	0d 92       	st	X+, r0
 220:	8a 95       	dec	r24
 222:	e1 f7       	brne	.-8      	; 0x21c <H_LCD_void_sendCommand+0x24>
 224:	10 e0       	ldi	r17, 0x00	; 0
 226:	15 c0       	rjmp	.+42     	; 0x252 <H_LCD_void_sendCommand+0x5a>
 228:	81 2f       	mov	r24, r17
 22a:	90 e0       	ldi	r25, 0x00	; 0
 22c:	88 0f       	add	r24, r24
 22e:	99 1f       	adc	r25, r25
 230:	88 0f       	add	r24, r24
 232:	99 1f       	adc	r25, r25
 234:	21 e0       	ldi	r18, 0x01	; 1
 236:	30 e0       	ldi	r19, 0x00	; 0
 238:	2c 0f       	add	r18, r28
 23a:	3d 1f       	adc	r19, r29
 23c:	82 0f       	add	r24, r18
 23e:	93 1f       	adc	r25, r19
 240:	0e 94 3c 03 	call	0x678	; 0x678 <DIO_U8SetPinValue>
 244:	89 ef       	ldi	r24, 0xF9	; 249
 246:	90 e0       	ldi	r25, 0x00	; 0
 248:	01 97       	sbiw	r24, 0x01	; 1
 24a:	f1 f7       	brne	.-4      	; 0x248 <H_LCD_void_sendCommand+0x50>
 24c:	00 c0       	rjmp	.+0      	; 0x24e <H_LCD_void_sendCommand+0x56>
 24e:	00 00       	nop
 250:	1f 5f       	subi	r17, 0xFF	; 255
 252:	12 30       	cpi	r17, 0x02	; 2
 254:	48 f3       	brcs	.-46     	; 0x228 <H_LCD_void_sendCommand+0x30>
 256:	89 ef       	ldi	r24, 0xF9	; 249
 258:	90 e0       	ldi	r25, 0x00	; 0
 25a:	01 97       	sbiw	r24, 0x01	; 1
 25c:	f1 f7       	brne	.-4      	; 0x25a <H_LCD_void_sendCommand+0x62>
 25e:	00 c0       	rjmp	.+0      	; 0x260 <H_LCD_void_sendCommand+0x68>
 260:	00 00       	nop
 262:	80 2f       	mov	r24, r16
 264:	0e 94 62 00 	call	0xc4	; 0xc4 <H_LCD_void_latchByte>
 268:	28 96       	adiw	r28, 0x08	; 8
 26a:	0f b6       	in	r0, 0x3f	; 63
 26c:	f8 94       	cli
 26e:	de bf       	out	0x3e, r29	; 62
 270:	0f be       	out	0x3f, r0	; 63
 272:	cd bf       	out	0x3d, r28	; 61
 274:	df 91       	pop	r29
 276:	cf 91       	pop	r28
 278:	1f 91       	pop	r17
 27a:	0f 91       	pop	r16
 27c:	08 95       	ret

0000027e <H_LCD_void_Init>:
 27e:	1f 93       	push	r17
 280:	cf 93       	push	r28
 282:	df 93       	push	r29
 284:	cd b7       	in	r28, 0x3d	; 61
 286:	de b7       	in	r29, 0x3e	; 62
 288:	68 97       	sbiw	r28, 0x18	; 24
 28a:	0f b6       	in	r0, 0x3f	; 63
 28c:	f8 94       	cli
 28e:	de bf       	out	0x3e, r29	; 62
 290:	0f be       	out	0x3f, r0	; 63
 292:	cd bf       	out	0x3d, r28	; 61
 294:	fe 01       	movw	r30, r28
 296:	31 96       	adiw	r30, 0x01	; 1
 298:	88 e0       	ldi	r24, 0x08	; 8
 29a:	df 01       	movw	r26, r30
 29c:	1d 92       	st	X+, r1
 29e:	8a 95       	dec	r24
 2a0:	e9 f7       	brne	.-6      	; 0x29c <H_LCD_void_Init+0x1e>
 2a2:	83 e0       	ldi	r24, 0x03	; 3
 2a4:	8a 83       	std	Y+2, r24	; 0x02
 2a6:	81 e0       	ldi	r24, 0x01	; 1
 2a8:	8b 83       	std	Y+3, r24	; 0x03
 2aa:	92 e0       	ldi	r25, 0x02	; 2
 2ac:	9e 83       	std	Y+6, r25	; 0x06
 2ae:	8f 83       	std	Y+7, r24	; 0x07
 2b0:	10 e0       	ldi	r17, 0x00	; 0
 2b2:	0f c0       	rjmp	.+30     	; 0x2d2 <H_LCD_void_Init+0x54>
 2b4:	81 2f       	mov	r24, r17
 2b6:	90 e0       	ldi	r25, 0x00	; 0
 2b8:	88 0f       	add	r24, r24
 2ba:	99 1f       	adc	r25, r25
 2bc:	88 0f       	add	r24, r24
 2be:	99 1f       	adc	r25, r25
 2c0:	21 e0       	ldi	r18, 0x01	; 1
 2c2:	30 e0       	ldi	r19, 0x00	; 0
 2c4:	2c 0f       	add	r18, r28
 2c6:	3d 1f       	adc	r19, r29
 2c8:	82 0f       	add	r24, r18
 2ca:	93 1f       	adc	r25, r19
 2cc:	0e 94 fe 02 	call	0x5fc	; 0x5fc <DIO_U8SetPinDirection>
 2d0:	1f 5f       	subi	r17, 0xFF	; 255
 2d2:	12 30       	cpi	r17, 0x02	; 2
 2d4:	78 f3       	brcs	.-34     	; 0x2b4 <H_LCD_void_Init+0x36>
 2d6:	fe 01       	movw	r30, r28
 2d8:	39 96       	adiw	r30, 0x09	; 9
 2da:	80 e1       	ldi	r24, 0x10	; 16
 2dc:	df 01       	movw	r26, r30
 2de:	1d 92       	st	X+, r1
 2e0:	8a 95       	dec	r24
 2e2:	e9 f7       	brne	.-6      	; 0x2de <H_LCD_void_Init+0x60>
 2e4:	81 e0       	ldi	r24, 0x01	; 1
 2e6:	89 87       	std	Y+9, r24	; 0x09
 2e8:	8b 87       	std	Y+11, r24	; 0x0b
 2ea:	8d 87       	std	Y+13, r24	; 0x0d
 2ec:	8e 87       	std	Y+14, r24	; 0x0e
 2ee:	8f 87       	std	Y+15, r24	; 0x0f
 2f0:	89 8b       	std	Y+17, r24	; 0x11
 2f2:	92 e0       	ldi	r25, 0x02	; 2
 2f4:	9a 8b       	std	Y+18, r25	; 0x12
 2f6:	8b 8b       	std	Y+19, r24	; 0x13
 2f8:	8d 8b       	std	Y+21, r24	; 0x15
 2fa:	94 e0       	ldi	r25, 0x04	; 4
 2fc:	9e 8b       	std	Y+22, r25	; 0x16
 2fe:	8f 8b       	std	Y+23, r24	; 0x17
 300:	10 e0       	ldi	r17, 0x00	; 0
 302:	0f c0       	rjmp	.+30     	; 0x322 <H_LCD_void_Init+0xa4>
 304:	81 2f       	mov	r24, r17
 306:	90 e0       	ldi	r25, 0x00	; 0
 308:	88 0f       	add	r24, r24
 30a:	99 1f       	adc	r25, r25
 30c:	88 0f       	add	r24, r24
 30e:	99 1f       	adc	r25, r25
 310:	29 e0       	ldi	r18, 0x09	; 9
 312:	30 e0       	ldi	r19, 0x00	; 0
 314:	2c 0f       	add	r18, r28
 316:	3d 1f       	adc	r19, r29
 318:	82 0f       	add	r24, r18
 31a:	93 1f       	adc	r25, r19
 31c:	0e 94 fe 02 	call	0x5fc	; 0x5fc <DIO_U8SetPinDirection>
 320:	1f 5f       	subi	r17, 0xFF	; 255
 322:	14 30       	cpi	r17, 0x04	; 4
 324:	78 f3       	brcs	.-34     	; 0x304 <H_LCD_void_Init+0x86>
 326:	82 e0       	ldi	r24, 0x02	; 2
 328:	0e 94 fc 00 	call	0x1f8	; 0x1f8 <H_LCD_void_sendCommand>
 32c:	89 ef       	ldi	r24, 0xF9	; 249
 32e:	90 e0       	ldi	r25, 0x00	; 0
 330:	01 97       	sbiw	r24, 0x01	; 1
 332:	f1 f7       	brne	.-4      	; 0x330 <H_LCD_void_Init+0xb2>
 334:	00 c0       	rjmp	.+0      	; 0x336 <H_LCD_void_Init+0xb8>
 336:	00 00       	nop
 338:	88 e2       	ldi	r24, 0x28	; 40
 33a:	0e 94 fc 00 	call	0x1f8	; 0x1f8 <H_LCD_void_sendCommand>
 33e:	a9 ef       	ldi	r26, 0xF9	; 249
 340:	b0 e0       	ldi	r27, 0x00	; 0
 342:	11 97       	sbiw	r26, 0x01	; 1
 344:	f1 f7       	brne	.-4      	; 0x342 <H_LCD_void_Init+0xc4>
 346:	00 c0       	rjmp	.+0      	; 0x348 <H_LCD_void_Init+0xca>
 348:	00 00       	nop
 34a:	8f e0       	ldi	r24, 0x0F	; 15
 34c:	0e 94 fc 00 	call	0x1f8	; 0x1f8 <H_LCD_void_sendCommand>
 350:	89 ef       	ldi	r24, 0xF9	; 249
 352:	90 e0       	ldi	r25, 0x00	; 0
 354:	01 97       	sbiw	r24, 0x01	; 1
 356:	f1 f7       	brne	.-4      	; 0x354 <H_LCD_void_Init+0xd6>
 358:	00 c0       	rjmp	.+0      	; 0x35a <H_LCD_void_Init+0xdc>
 35a:	00 00       	nop
 35c:	81 e0       	ldi	r24, 0x01	; 1
 35e:	0e 94 fc 00 	call	0x1f8	; 0x1f8 <H_LCD_void_sendCommand>
 362:	a3 ef       	ldi	r26, 0xF3	; 243
 364:	b1 e0       	ldi	r27, 0x01	; 1
 366:	11 97       	sbiw	r26, 0x01	; 1
 368:	f1 f7       	brne	.-4      	; 0x366 <H_LCD_void_Init+0xe8>
 36a:	00 c0       	rjmp	.+0      	; 0x36c <H_LCD_void_Init+0xee>
 36c:	00 00       	nop
 36e:	86 e0       	ldi	r24, 0x06	; 6
 370:	0e 94 fc 00 	call	0x1f8	; 0x1f8 <H_LCD_void_sendCommand>
 374:	68 96       	adiw	r28, 0x18	; 24
 376:	0f b6       	in	r0, 0x3f	; 63
 378:	f8 94       	cli
 37a:	de bf       	out	0x3e, r29	; 62
 37c:	0f be       	out	0x3f, r0	; 63
 37e:	cd bf       	out	0x3d, r28	; 61
 380:	df 91       	pop	r29
 382:	cf 91       	pop	r28
 384:	1f 91       	pop	r17
 386:	08 95       	ret

00000388 <H_LCD_void_sendData>:
 388:	0f 93       	push	r16
 38a:	1f 93       	push	r17
 38c:	cf 93       	push	r28
 38e:	df 93       	push	r29
 390:	cd b7       	in	r28, 0x3d	; 61
 392:	de b7       	in	r29, 0x3e	; 62
 394:	28 97       	sbiw	r28, 0x08	; 8
 396:	0f b6       	in	r0, 0x3f	; 63
 398:	f8 94       	cli
 39a:	de bf       	out	0x3e, r29	; 62
 39c:	0f be       	out	0x3f, r0	; 63
 39e:	cd bf       	out	0x3d, r28	; 61
 3a0:	08 2f       	mov	r16, r24
 3a2:	88 e0       	ldi	r24, 0x08	; 8
 3a4:	e8 e6       	ldi	r30, 0x68	; 104
 3a6:	f0 e0       	ldi	r31, 0x00	; 0
 3a8:	de 01       	movw	r26, r28
 3aa:	11 96       	adiw	r26, 0x01	; 1
 3ac:	01 90       	ld	r0, Z+
 3ae:	0d 92       	st	X+, r0
 3b0:	8a 95       	dec	r24
 3b2:	e1 f7       	brne	.-8      	; 0x3ac <H_LCD_void_sendData+0x24>
 3b4:	10 e0       	ldi	r17, 0x00	; 0
 3b6:	15 c0       	rjmp	.+42     	; 0x3e2 <H_LCD_void_sendData+0x5a>
 3b8:	81 2f       	mov	r24, r17
 3ba:	90 e0       	ldi	r25, 0x00	; 0
 3bc:	88 0f       	add	r24, r24
 3be:	99 1f       	adc	r25, r25
 3c0:	88 0f       	add	r24, r24
 3c2:	99 1f       	adc	r25, r25
 3c4:	21 e0       	ldi	r18, 0x01	; 1
 3c6:	30 e0       	ldi	r19, 0x00	; 0
 3c8:	2c 0f       	add	r18, r28
 3ca:	3d 1f       	adc	r19, r29
 3cc:	82 0f       	add	r24, r18
 3ce:	93 1f       	adc	r25, r19
 3d0:	0e 94 3c 03 	call	0x678	; 0x678 <DIO_U8SetPinValue>
 3d4:	89 ef       	ldi	r24, 0xF9	; 249
 3d6:	90 e0       	ldi	r25, 0x00	; 0
 3d8:	01 97       	sbiw	r24, 0x01	; 1
 3da:	f1 f7       	brne	.-4      	; 0x3d8 <H_LCD_void_sendData+0x50>
 3dc:	00 c0       	rjmp	.+0      	; 0x3de <H_LCD_void_sendData+0x56>
 3de:	00 00       	nop
 3e0:	1f 5f       	subi	r17, 0xFF	; 255
 3e2:	12 30       	cpi	r17, 0x02	; 2
 3e4:	48 f3       	brcs	.-46     	; 0x3b8 <H_LCD_void_sendData+0x30>
 3e6:	89 ef       	ldi	r24, 0xF9	; 249
 3e8:	90 e0       	ldi	r25, 0x00	; 0
 3ea:	01 97       	sbiw	r24, 0x01	; 1
 3ec:	f1 f7       	brne	.-4      	; 0x3ea <H_LCD_void_sendData+0x62>
 3ee:	00 c0       	rjmp	.+0      	; 0x3f0 <H_LCD_void_sendData+0x68>
 3f0:	00 00       	nop
 3f2:	80 2f       	mov	r24, r16
 3f4:	0e 94 62 00 	call	0xc4	; 0xc4 <H_LCD_void_latchByte>
 3f8:	28 96       	adiw	r28, 0x08	; 8
 3fa:	0f b6       	in	r0, 0x3f	; 63
 3fc:	f8 94       	cli
 3fe:	de bf       	out	0x3e, r29	; 62
 400:	0f be       	out	0x3f, r0	; 63
 402:	cd bf       	out	0x3d, r28	; 61
 404:	df 91       	pop	r29
 406:	cf 91       	pop	r28
 408:	1f 91       	pop	r17
 40a:	0f 91       	pop	r16
 40c:	08 95       	ret

0000040e <H_LCD_void_sendString>:
 40e:	0f 93       	push	r16
 410:	1f 93       	push	r17
 412:	cf 93       	push	r28
 414:	8c 01       	movw	r16, r24
 416:	c0 e0       	ldi	r28, 0x00	; 0
 418:	03 c0       	rjmp	.+6      	; 0x420 <H_LCD_void_sendString+0x12>
 41a:	0e 94 c4 01 	call	0x388	; 0x388 <H_LCD_void_sendData>
 41e:	cf 5f       	subi	r28, 0xFF	; 255
 420:	f8 01       	movw	r30, r16
 422:	ec 0f       	add	r30, r28
 424:	f1 1d       	adc	r31, r1
 426:	80 81       	ld	r24, Z
 428:	81 11       	cpse	r24, r1
 42a:	f7 cf       	rjmp	.-18     	; 0x41a <H_LCD_void_sendString+0xc>
 42c:	cf 91       	pop	r28
 42e:	1f 91       	pop	r17
 430:	0f 91       	pop	r16
 432:	08 95       	ret

00000434 <H_LCD_void_sendIntNum>:
 434:	cf 93       	push	r28
 436:	df 93       	push	r29
 438:	cd b7       	in	r28, 0x3d	; 61
 43a:	de b7       	in	r29, 0x3e	; 62
 43c:	60 97       	sbiw	r28, 0x10	; 16
 43e:	0f b6       	in	r0, 0x3f	; 63
 440:	f8 94       	cli
 442:	de bf       	out	0x3e, r29	; 62
 444:	0f be       	out	0x3f, r0	; 63
 446:	cd bf       	out	0x3d, r28	; 61
 448:	dc 01       	movw	r26, r24
 44a:	cb 01       	movw	r24, r22
 44c:	4a e0       	ldi	r20, 0x0A	; 10
 44e:	be 01       	movw	r22, r28
 450:	6f 5f       	subi	r22, 0xFF	; 255
 452:	7f 4f       	sbci	r23, 0xFF	; 255
 454:	0e 94 1c 07 	call	0xe38	; 0xe38 <__itoa_ncheck>
 458:	ce 01       	movw	r24, r28
 45a:	01 96       	adiw	r24, 0x01	; 1
 45c:	0e 94 07 02 	call	0x40e	; 0x40e <H_LCD_void_sendString>
 460:	60 96       	adiw	r28, 0x10	; 16
 462:	0f b6       	in	r0, 0x3f	; 63
 464:	f8 94       	cli
 466:	de bf       	out	0x3e, r29	; 62
 468:	0f be       	out	0x3f, r0	; 63
 46a:	cd bf       	out	0x3d, r28	; 61
 46c:	df 91       	pop	r29
 46e:	cf 91       	pop	r28
 470:	08 95       	ret

00000472 <H_LCD_void_clearScreen>:

void H_LCD_void_clearScreen(void){
	H_LCD_void_sendCommand(LCD_CLEAR_COMMAND);
 472:	81 e0       	ldi	r24, 0x01	; 1
 474:	0e 94 fc 00 	call	0x1f8	; 0x1f8 <H_LCD_void_sendCommand>
 478:	08 95       	ret

0000047a <Ultrasonic_edgeProcessing>:
   Return      : None
 */

void Ultrasonic_edgeProcessing(void){
	/*increment the edge by one */
	g_edges_counter++;
 47a:	80 91 80 00 	lds	r24, 0x0080	; 0x800080 <__data_end>
 47e:	8f 5f       	subi	r24, 0xFF	; 255
 480:	80 93 80 00 	sts	0x0080, r24	; 0x800080 <__data_end>
	if(g_edges_counter==1){
 484:	81 30       	cpi	r24, 0x01	; 1
 486:	31 f4       	brne	.+12     	; 0x494 <Ultrasonic_edgeProcessing+0x1a>
		/*clear the timer register to start the timer when the rising edge is detected*/
		M_TIMER1_void_clearTimerValue();
 488:	0e 94 08 05 	call	0xa10	; 0xa10 <M_TIMER1_void_clearTimerValue>
		/*change the edge select to the falling edge to know the time of the pulse*/
		M_TIMER1_void_setEdgeDetectionType(FALLING);
 48c:	80 e0       	ldi	r24, 0x00	; 0
 48e:	0e 94 ff 04 	call	0x9fe	; 0x9fe <M_TIMER1_void_setEdgeDetectionType>
 492:	08 95       	ret
	}
	/*this condition will be true when the falling edge is detected*/
	else if(g_edges_counter==2){
 494:	82 30       	cpi	r24, 0x02	; 2
 496:	59 f4       	brne	.+22     	; 0x4ae <Ultrasonic_edgeProcessing+0x34>
		/*we will read the input capture register and save it inside the g_timeHigh*/
		g_time = M_TIMER1_void_getInputCaptureValue();
 498:	0e 94 fc 04 	call	0x9f8	; 0x9f8 <M_TIMER1_void_getInputCaptureValue>
 49c:	90 93 82 00 	sts	0x0082, r25	; 0x800082 <g_time+0x1>
 4a0:	80 93 81 00 	sts	0x0081, r24	; 0x800081 <g_time>

		/*clear the input capture register to start detect again*/
		M_TIMER1_void_clearTimerValue();
 4a4:	0e 94 08 05 	call	0xa10	; 0xa10 <M_TIMER1_void_clearTimerValue>

		/*To start detecting from the rising edge*/
		M_TIMER1_void_setEdgeDetectionType(RISING);
 4a8:	81 e0       	ldi	r24, 0x01	; 1
 4aa:	0e 94 ff 04 	call	0x9fe	; 0x9fe <M_TIMER1_void_setEdgeDetectionType>
 4ae:	08 95       	ret

000004b0 <Ultrasonic_init>:
                 2- Setup the ICU call back function.
                 3- Setup the direction for the trigger pin as output pin through the GPIO driver.
     Inputs      : None
     Return      : None
 * */
void Ultrasonic_init(void){
 4b0:	ef 92       	push	r14
 4b2:	ff 92       	push	r15
 4b4:	1f 93       	push	r17
 4b6:	cf 93       	push	r28
 4b8:	df 93       	push	r29
 4ba:	cd b7       	in	r28, 0x3d	; 61
 4bc:	de b7       	in	r29, 0x3e	; 62
 4be:	2d 97       	sbiw	r28, 0x0d	; 13
 4c0:	0f b6       	in	r0, 0x3f	; 63
 4c2:	f8 94       	cli
 4c4:	de bf       	out	0x3e, r29	; 62
 4c6:	0f be       	out	0x3f, r0	; 63
 4c8:	cd bf       	out	0x3d, r28	; 61
	/*
	 * setup the icu : 1- frequency -> fcpu/64
	 *                 2- start with first rising edge
	 * */
	Timer1_Config timerConfig1 = {Timer1_NORMAL,Timer1_PRESCALER_64};
 4ca:	ce 01       	movw	r24, r28
 4cc:	01 96       	adiw	r24, 0x01	; 1
 4ce:	7c 01       	movw	r14, r24
 4d0:	85 e0       	ldi	r24, 0x05	; 5
 4d2:	f7 01       	movw	r30, r14
 4d4:	11 92       	st	Z+, r1
 4d6:	8a 95       	dec	r24
 4d8:	e9 f7       	brne	.-6      	; 0x4d4 <Ultrasonic_init+0x24>
 4da:	13 e0       	ldi	r17, 0x03	; 3
 4dc:	1a 83       	std	Y+2, r17	; 0x02
	M_TIMER1_void_setCallBack(Ultrasonic_edgeProcessing,TIMER1_ICU);
 4de:	63 e0       	ldi	r22, 0x03	; 3
 4e0:	8d e3       	ldi	r24, 0x3D	; 61
 4e2:	92 e0       	ldi	r25, 0x02	; 2
 4e4:	0e 94 e7 04 	call	0x9ce	; 0x9ce <M_TIMER1_void_setCallBack>
	//M_TIMER1_void_setCallBack(TimerOVFCallBack,TIMER1_OVERFLOW);
	M_TIMER1_void_Init(&timerConfig1);
 4e8:	c7 01       	movw	r24, r14
 4ea:	0e 94 a7 04 	call	0x94e	; 0x94e <M_TIMER1_void_Init>
	M_TIMER1_void_IntEnable(TIMER1_ICU);
 4ee:	83 e0       	ldi	r24, 0x03	; 3
 4f0:	0e 94 d5 04 	call	0x9aa	; 0x9aa <M_TIMER1_void_IntEnable>
	//M_TIMER1_void_IntEnable(TIMER1_OVERFLOW);
	M_TIMER1_void_setEdgeDetectionType(RISING);
 4f4:	81 e0       	ldi	r24, 0x01	; 1
 4f6:	0e 94 ff 04 	call	0x9fe	; 0x9fe <M_TIMER1_void_setEdgeDetectionType>
	M_TIMER1_void_start();
 4fa:	0e 94 cc 04 	call	0x998	; 0x998 <M_TIMER1_void_start>
	
	
	/* setup the direction of the trigger to be output pin */
	DIO_Config trig_bin = {ULTRASONIC_TRIGGER_PORTID,ULTRASONIC_TRIGGER_PINID,DIO_PIN_OUTPUT};
 4fe:	1e 82       	std	Y+6, r1	; 0x06
 500:	1f 82       	std	Y+7, r1	; 0x07
 502:	18 86       	std	Y+8, r1	; 0x08
 504:	19 86       	std	Y+9, r1	; 0x09
 506:	1e 83       	std	Y+6, r17	; 0x06
 508:	1f 83       	std	Y+7, r17	; 0x07
 50a:	81 e0       	ldi	r24, 0x01	; 1
 50c:	88 87       	std	Y+8, r24	; 0x08
	DIO_U8SetPinDirection(&trig_bin);
 50e:	ce 01       	movw	r24, r28
 510:	06 96       	adiw	r24, 0x06	; 6
 512:	0e 94 fe 02 	call	0x5fc	; 0x5fc <DIO_U8SetPinDirection>
	
		/* setup the direction of the trigger to be output pin */
		DIO_Config trig_bin1 = {DIO_PORTD,DIO_PIN3,DIO_PIN_INPUT};
 516:	1a 86       	std	Y+10, r1	; 0x0a
 518:	1b 86       	std	Y+11, r1	; 0x0b
 51a:	1c 86       	std	Y+12, r1	; 0x0c
 51c:	1d 86       	std	Y+13, r1	; 0x0d
 51e:	1a 87       	std	Y+10, r17	; 0x0a
 520:	1b 87       	std	Y+11, r17	; 0x0b
		DIO_U8SetPinDirection(&trig_bin1);
 522:	ce 01       	movw	r24, r28
 524:	0a 96       	adiw	r24, 0x0a	; 10
 526:	0e 94 fe 02 	call	0x5fc	; 0x5fc <DIO_U8SetPinDirection>
}
 52a:	2d 96       	adiw	r28, 0x0d	; 13
 52c:	0f b6       	in	r0, 0x3f	; 63
 52e:	f8 94       	cli
 530:	de bf       	out	0x3e, r29	; 62
 532:	0f be       	out	0x3f, r0	; 63
 534:	cd bf       	out	0x3d, r28	; 61
 536:	df 91       	pop	r29
 538:	cf 91       	pop	r28
 53a:	1f 91       	pop	r17
 53c:	ff 90       	pop	r15
 53e:	ef 90       	pop	r14
 540:	08 95       	ret

00000542 <Ultrasonic_Trigger>:
/*
• Description : Send the Trigger pulse to the ultrasonic.
• Inputs      : None
• Return      : None
 */
void Ultrasonic_Trigger(void){
 542:	cf 93       	push	r28
 544:	df 93       	push	r29
 546:	00 d0       	rcall	.+0      	; 0x548 <Ultrasonic_Trigger+0x6>
 548:	00 d0       	rcall	.+0      	; 0x54a <Ultrasonic_Trigger+0x8>
 54a:	cd b7       	in	r28, 0x3d	; 61
 54c:	de b7       	in	r29, 0x3e	; 62
	/*give the trigger logic high (1) to start send signal */
	DIO_Config trig_bin = {ULTRASONIC_TRIGGER_PORTID,ULTRASONIC_TRIGGER_PINID,DIO_PIN_OUTPUT,DIO_PIN_HIGH};
 54e:	83 e0       	ldi	r24, 0x03	; 3
 550:	89 83       	std	Y+1, r24	; 0x01
 552:	8a 83       	std	Y+2, r24	; 0x02
 554:	81 e0       	ldi	r24, 0x01	; 1
 556:	8b 83       	std	Y+3, r24	; 0x03
 558:	8c 83       	std	Y+4, r24	; 0x04
	DIO_U8SetPinValue(&trig_bin);
 55a:	ce 01       	movw	r24, r28
 55c:	01 96       	adiw	r24, 0x01	; 1
 55e:	0e 94 3c 03 	call	0x678	; 0x678 <DIO_U8SetPinValue>
 562:	8f e3       	ldi	r24, 0x3F	; 63
 564:	9c e9       	ldi	r25, 0x9C	; 156
 566:	01 97       	sbiw	r24, 0x01	; 1
 568:	f1 f7       	brne	.-4      	; 0x566 <Ultrasonic_Trigger+0x24>
 56a:	00 c0       	rjmp	.+0      	; 0x56c <Ultrasonic_Trigger+0x2a>
 56c:	00 00       	nop
	/*delay for sending signal*/
	_delay_ms(10);
	/*give the trigger logic low (0) to stop send signal */
	trig_bin.value=DIO_PIN_LOW;
 56e:	1c 82       	std	Y+4, r1	; 0x04
	DIO_U8SetPinValue(&trig_bin);
 570:	ce 01       	movw	r24, r28
 572:	01 96       	adiw	r24, 0x01	; 1
 574:	0e 94 3c 03 	call	0x678	; 0x678 <DIO_U8SetPinValue>
}
 578:	0f 90       	pop	r0
 57a:	0f 90       	pop	r0
 57c:	0f 90       	pop	r0
 57e:	0f 90       	pop	r0
 580:	df 91       	pop	r29
 582:	cf 91       	pop	r28
 584:	08 95       	ret

00000586 <Ultrasonic_readDistance>:
• Inputs      : None
• Return      : The measured distance in Centimeterr
 */
u16 Ultrasonic_readDistance(void){
	/* sending pulses by the trigger*/
	Ultrasonic_Trigger();
 586:	0e 94 a1 02 	call	0x542	; 0x542 <Ultrasonic_Trigger>
	if(g_edges_counter==2){ //raising & falling -> 1 cycle
 58a:	80 91 80 00 	lds	r24, 0x0080	; 0x800080 <__data_end>
 58e:	82 30       	cpi	r24, 0x02	; 2
 590:	b1 f4       	brne	.+44     	; 0x5be <Ultrasonic_readDistance+0x38>
		g_edges_counter=0; //reset the counter of the edges
 592:	10 92 80 00 	sts	0x0080, r1	; 0x800080 <__data_end>
		/* equation to convert from time to distance*/
		g_distance = (g_time*0.01715);
 596:	60 91 81 00 	lds	r22, 0x0081	; 0x800081 <g_time>
 59a:	70 91 82 00 	lds	r23, 0x0082	; 0x800082 <g_time+0x1>
 59e:	80 e0       	ldi	r24, 0x00	; 0
 5a0:	90 e0       	ldi	r25, 0x00	; 0
 5a2:	0e 94 21 06 	call	0xc42	; 0xc42 <__floatunsisf>
 5a6:	28 e2       	ldi	r18, 0x28	; 40
 5a8:	3e e7       	ldi	r19, 0x7E	; 126
 5aa:	4c e8       	ldi	r20, 0x8C	; 140
 5ac:	5c e3       	ldi	r21, 0x3C	; 60
 5ae:	0e 94 af 06 	call	0xd5e	; 0xd5e <__mulsf3>
 5b2:	0e 94 f2 05 	call	0xbe4	; 0xbe4 <__fixunssfsi>
 5b6:	70 93 84 00 	sts	0x0084, r23	; 0x800084 <g_distance+0x1>
 5ba:	60 93 83 00 	sts	0x0083, r22	; 0x800083 <g_distance>
	}
	return (g_distance+1);
 5be:	80 91 83 00 	lds	r24, 0x0083	; 0x800083 <g_distance>
 5c2:	90 91 84 00 	lds	r25, 0x0084	; 0x800084 <g_distance+0x1>
}
 5c6:	01 96       	adiw	r24, 0x01	; 1
 5c8:	08 95       	ret

000005ca <__vector_16>:
 5ca:	24 b1       	in	r18, 0x04	; 4
 5cc:	30 e0       	ldi	r19, 0x00	; 0
 5ce:	00 24       	eor	r0, r0
 5d0:	22 0f       	add	r18, r18
 5d2:	33 1f       	adc	r19, r19
 5d4:	00 1c       	adc	r0, r0
 5d6:	22 0f       	add	r18, r18
 5d8:	33 1f       	adc	r19, r19
 5da:	00 1c       	adc	r0, r0
 5dc:	23 2f       	mov	r18, r19
 5de:	30 2d       	mov	r19, r0
 5e0:	85 b1       	in	r24, 0x05	; 5
 5e2:	90 e0       	ldi	r25, 0x00	; 0
 5e4:	88 0f       	add	r24, r24
 5e6:	99 1f       	adc	r25, r25
 5e8:	88 0f       	add	r24, r24
 5ea:	99 1f       	adc	r25, r25
 5ec:	e0 91 85 00 	lds	r30, 0x0085	; 0x800085 <ADC_callBack>
 5f0:	f0 91 86 00 	lds	r31, 0x0086	; 0x800086 <ADC_callBack+0x1>
 5f4:	82 2b       	or	r24, r18
 5f6:	93 2b       	or	r25, r19
 5f8:	09 95       	icall
 5fa:	08 95       	ret

000005fc <DIO_U8SetPinDirection>:
 5fc:	dc 01       	movw	r26, r24
 5fe:	ec 91       	ld	r30, X
 600:	e4 30       	cpi	r30, 0x04	; 4
 602:	a0 f5       	brcc	.+104    	; 0x66c <DIO_U8SetPinDirection+0x70>
 604:	11 96       	adiw	r26, 0x01	; 1
 606:	2c 91       	ld	r18, X
 608:	11 97       	sbiw	r26, 0x01	; 1
 60a:	28 30       	cpi	r18, 0x08	; 8
 60c:	88 f5       	brcc	.+98     	; 0x670 <DIO_U8SetPinDirection+0x74>
 60e:	12 96       	adiw	r26, 0x02	; 2
 610:	8c 91       	ld	r24, X
 612:	81 11       	cpse	r24, r1
 614:	15 c0       	rjmp	.+42     	; 0x640 <DIO_U8SetPinDirection+0x44>
 616:	f0 e0       	ldi	r31, 0x00	; 0
 618:	ee 0f       	add	r30, r30
 61a:	ff 1f       	adc	r31, r31
 61c:	e8 58       	subi	r30, 0x88	; 136
 61e:	ff 4f       	sbci	r31, 0xFF	; 255
 620:	01 90       	ld	r0, Z+
 622:	f0 81       	ld	r31, Z
 624:	e0 2d       	mov	r30, r0
 626:	81 e0       	ldi	r24, 0x01	; 1
 628:	90 e0       	ldi	r25, 0x00	; 0
 62a:	02 c0       	rjmp	.+4      	; 0x630 <DIO_U8SetPinDirection+0x34>
 62c:	88 0f       	add	r24, r24
 62e:	99 1f       	adc	r25, r25
 630:	2a 95       	dec	r18
 632:	e2 f7       	brpl	.-8      	; 0x62c <DIO_U8SetPinDirection+0x30>
 634:	80 95       	com	r24
 636:	90 81       	ld	r25, Z
 638:	89 23       	and	r24, r25
 63a:	80 83       	st	Z, r24
 63c:	80 e0       	ldi	r24, 0x00	; 0
 63e:	08 95       	ret
 640:	81 30       	cpi	r24, 0x01	; 1
 642:	c1 f4       	brne	.+48     	; 0x674 <DIO_U8SetPinDirection+0x78>
 644:	f0 e0       	ldi	r31, 0x00	; 0
 646:	ee 0f       	add	r30, r30
 648:	ff 1f       	adc	r31, r31
 64a:	e8 58       	subi	r30, 0x88	; 136
 64c:	ff 4f       	sbci	r31, 0xFF	; 255
 64e:	01 90       	ld	r0, Z+
 650:	f0 81       	ld	r31, Z
 652:	e0 2d       	mov	r30, r0
 654:	81 e0       	ldi	r24, 0x01	; 1
 656:	90 e0       	ldi	r25, 0x00	; 0
 658:	02 c0       	rjmp	.+4      	; 0x65e <DIO_U8SetPinDirection+0x62>
 65a:	88 0f       	add	r24, r24
 65c:	99 1f       	adc	r25, r25
 65e:	2a 95       	dec	r18
 660:	e2 f7       	brpl	.-8      	; 0x65a <DIO_U8SetPinDirection+0x5e>
 662:	90 81       	ld	r25, Z
 664:	89 2b       	or	r24, r25
 666:	80 83       	st	Z, r24
 668:	80 e0       	ldi	r24, 0x00	; 0
 66a:	08 95       	ret
 66c:	81 e0       	ldi	r24, 0x01	; 1
 66e:	08 95       	ret
 670:	81 e0       	ldi	r24, 0x01	; 1
 672:	08 95       	ret
 674:	81 e0       	ldi	r24, 0x01	; 1
 676:	08 95       	ret

00000678 <DIO_U8SetPinValue>:
 678:	00 97       	sbiw	r24, 0x00	; 0
 67a:	c1 f1       	breq	.+112    	; 0x6ec <DIO_U8SetPinValue+0x74>
 67c:	dc 01       	movw	r26, r24
 67e:	ec 91       	ld	r30, X
 680:	e4 30       	cpi	r30, 0x04	; 4
 682:	b0 f5       	brcc	.+108    	; 0x6f0 <DIO_U8SetPinValue+0x78>
 684:	11 96       	adiw	r26, 0x01	; 1
 686:	2c 91       	ld	r18, X
 688:	11 97       	sbiw	r26, 0x01	; 1
 68a:	28 30       	cpi	r18, 0x08	; 8
 68c:	98 f5       	brcc	.+102    	; 0x6f4 <DIO_U8SetPinValue+0x7c>
 68e:	13 96       	adiw	r26, 0x03	; 3
 690:	8c 91       	ld	r24, X
 692:	81 30       	cpi	r24, 0x01	; 1
 694:	a1 f4       	brne	.+40     	; 0x6be <DIO_U8SetPinValue+0x46>
 696:	f0 e0       	ldi	r31, 0x00	; 0
 698:	ee 0f       	add	r30, r30
 69a:	ff 1f       	adc	r31, r31
 69c:	e0 59       	subi	r30, 0x90	; 144
 69e:	ff 4f       	sbci	r31, 0xFF	; 255
 6a0:	01 90       	ld	r0, Z+
 6a2:	f0 81       	ld	r31, Z
 6a4:	e0 2d       	mov	r30, r0
 6a6:	81 e0       	ldi	r24, 0x01	; 1
 6a8:	90 e0       	ldi	r25, 0x00	; 0
 6aa:	02 c0       	rjmp	.+4      	; 0x6b0 <DIO_U8SetPinValue+0x38>
 6ac:	88 0f       	add	r24, r24
 6ae:	99 1f       	adc	r25, r25
 6b0:	2a 95       	dec	r18
 6b2:	e2 f7       	brpl	.-8      	; 0x6ac <DIO_U8SetPinValue+0x34>
 6b4:	90 81       	ld	r25, Z
 6b6:	89 2b       	or	r24, r25
 6b8:	80 83       	st	Z, r24
 6ba:	80 e0       	ldi	r24, 0x00	; 0
 6bc:	08 95       	ret
 6be:	81 11       	cpse	r24, r1
 6c0:	1b c0       	rjmp	.+54     	; 0x6f8 <DIO_U8SetPinValue+0x80>
 6c2:	f0 e0       	ldi	r31, 0x00	; 0
 6c4:	ee 0f       	add	r30, r30
 6c6:	ff 1f       	adc	r31, r31
 6c8:	e0 59       	subi	r30, 0x90	; 144
 6ca:	ff 4f       	sbci	r31, 0xFF	; 255
 6cc:	01 90       	ld	r0, Z+
 6ce:	f0 81       	ld	r31, Z
 6d0:	e0 2d       	mov	r30, r0
 6d2:	81 e0       	ldi	r24, 0x01	; 1
 6d4:	90 e0       	ldi	r25, 0x00	; 0
 6d6:	02 c0       	rjmp	.+4      	; 0x6dc <DIO_U8SetPinValue+0x64>
 6d8:	88 0f       	add	r24, r24
 6da:	99 1f       	adc	r25, r25
 6dc:	2a 95       	dec	r18
 6de:	e2 f7       	brpl	.-8      	; 0x6d8 <DIO_U8SetPinValue+0x60>
 6e0:	80 95       	com	r24
 6e2:	90 81       	ld	r25, Z
 6e4:	89 23       	and	r24, r25
 6e6:	80 83       	st	Z, r24
 6e8:	80 e0       	ldi	r24, 0x00	; 0
 6ea:	08 95       	ret
 6ec:	81 e0       	ldi	r24, 0x01	; 1
 6ee:	08 95       	ret
 6f0:	81 e0       	ldi	r24, 0x01	; 1
 6f2:	08 95       	ret
 6f4:	81 e0       	ldi	r24, 0x01	; 1
 6f6:	08 95       	ret
 6f8:	81 e0       	ldi	r24, 0x01	; 1
 6fa:	08 95       	ret

000006fc <__vector_1>:
 6fc:	1f 92       	push	r1
 6fe:	0f 92       	push	r0
 700:	0f b6       	in	r0, 0x3f	; 63
 702:	0f 92       	push	r0
 704:	11 24       	eor	r1, r1
 706:	2f 93       	push	r18
 708:	3f 93       	push	r19
 70a:	4f 93       	push	r20
 70c:	5f 93       	push	r21
 70e:	6f 93       	push	r22
 710:	7f 93       	push	r23
 712:	8f 93       	push	r24
 714:	9f 93       	push	r25
 716:	af 93       	push	r26
 718:	bf 93       	push	r27
 71a:	ef 93       	push	r30
 71c:	ff 93       	push	r31
 71e:	e0 91 87 00 	lds	r30, 0x0087	; 0x800087 <Action>
 722:	f0 91 88 00 	lds	r31, 0x0088	; 0x800088 <Action+0x1>
 726:	30 97       	sbiw	r30, 0x00	; 0
 728:	09 f0       	breq	.+2      	; 0x72c <__vector_1+0x30>
 72a:	09 95       	icall
 72c:	ff 91       	pop	r31
 72e:	ef 91       	pop	r30
 730:	bf 91       	pop	r27
 732:	af 91       	pop	r26
 734:	9f 91       	pop	r25
 736:	8f 91       	pop	r24
 738:	7f 91       	pop	r23
 73a:	6f 91       	pop	r22
 73c:	5f 91       	pop	r21
 73e:	4f 91       	pop	r20
 740:	3f 91       	pop	r19
 742:	2f 91       	pop	r18
 744:	0f 90       	pop	r0
 746:	0f be       	out	0x3f, r0	; 63
 748:	0f 90       	pop	r0
 74a:	1f 90       	pop	r1
 74c:	18 95       	reti

0000074e <__vector_2>:
 74e:	1f 92       	push	r1
 750:	0f 92       	push	r0
 752:	0f b6       	in	r0, 0x3f	; 63
 754:	0f 92       	push	r0
 756:	11 24       	eor	r1, r1
 758:	2f 93       	push	r18
 75a:	3f 93       	push	r19
 75c:	4f 93       	push	r20
 75e:	5f 93       	push	r21
 760:	6f 93       	push	r22
 762:	7f 93       	push	r23
 764:	8f 93       	push	r24
 766:	9f 93       	push	r25
 768:	af 93       	push	r26
 76a:	bf 93       	push	r27
 76c:	ef 93       	push	r30
 76e:	ff 93       	push	r31
 770:	e0 91 89 00 	lds	r30, 0x0089	; 0x800089 <Action+0x2>
 774:	f0 91 8a 00 	lds	r31, 0x008A	; 0x80008a <Action+0x3>
 778:	30 97       	sbiw	r30, 0x00	; 0
 77a:	09 f0       	breq	.+2      	; 0x77e <__vector_2+0x30>
 77c:	09 95       	icall
 77e:	ff 91       	pop	r31
 780:	ef 91       	pop	r30
 782:	bf 91       	pop	r27
 784:	af 91       	pop	r26
 786:	9f 91       	pop	r25
 788:	8f 91       	pop	r24
 78a:	7f 91       	pop	r23
 78c:	6f 91       	pop	r22
 78e:	5f 91       	pop	r21
 790:	4f 91       	pop	r20
 792:	3f 91       	pop	r19
 794:	2f 91       	pop	r18
 796:	0f 90       	pop	r0
 798:	0f be       	out	0x3f, r0	; 63
 79a:	0f 90       	pop	r0
 79c:	1f 90       	pop	r1
 79e:	18 95       	reti

000007a0 <__vector_3>:
 7a0:	1f 92       	push	r1
 7a2:	0f 92       	push	r0
 7a4:	0f b6       	in	r0, 0x3f	; 63
 7a6:	0f 92       	push	r0
 7a8:	11 24       	eor	r1, r1
 7aa:	2f 93       	push	r18
 7ac:	3f 93       	push	r19
 7ae:	4f 93       	push	r20
 7b0:	5f 93       	push	r21
 7b2:	6f 93       	push	r22
 7b4:	7f 93       	push	r23
 7b6:	8f 93       	push	r24
 7b8:	9f 93       	push	r25
 7ba:	af 93       	push	r26
 7bc:	bf 93       	push	r27
 7be:	ef 93       	push	r30
 7c0:	ff 93       	push	r31
 7c2:	e0 91 8b 00 	lds	r30, 0x008B	; 0x80008b <Action+0x4>
 7c6:	f0 91 8c 00 	lds	r31, 0x008C	; 0x80008c <Action+0x5>
 7ca:	30 97       	sbiw	r30, 0x00	; 0
 7cc:	09 f0       	breq	.+2      	; 0x7d0 <__vector_3+0x30>
 7ce:	09 95       	icall
 7d0:	ff 91       	pop	r31
 7d2:	ef 91       	pop	r30
 7d4:	bf 91       	pop	r27
 7d6:	af 91       	pop	r26
 7d8:	9f 91       	pop	r25
 7da:	8f 91       	pop	r24
 7dc:	7f 91       	pop	r23
 7de:	6f 91       	pop	r22
 7e0:	5f 91       	pop	r21
 7e2:	4f 91       	pop	r20
 7e4:	3f 91       	pop	r19
 7e6:	2f 91       	pop	r18
 7e8:	0f 90       	pop	r0
 7ea:	0f be       	out	0x3f, r0	; 63
 7ec:	0f 90       	pop	r0
 7ee:	1f 90       	pop	r1
 7f0:	18 95       	reti

000007f2 <GIE_enable>:
 7f2:	78 94       	sei
 7f4:	08 95       	ret

000007f6 <__vector_12>:
	// Start transmission
	SPI->SPDR = copy_u8Data;
}


ISR(SPI_STC_vect){
 7f6:	1f 92       	push	r1
 7f8:	0f 92       	push	r0
 7fa:	0f b6       	in	r0, 0x3f	; 63
 7fc:	0f 92       	push	r0
 7fe:	11 24       	eor	r1, r1
 800:	2f 93       	push	r18
 802:	3f 93       	push	r19
 804:	4f 93       	push	r20
 806:	5f 93       	push	r21
 808:	6f 93       	push	r22
 80a:	7f 93       	push	r23
 80c:	8f 93       	push	r24
 80e:	9f 93       	push	r25
 810:	af 93       	push	r26
 812:	bf 93       	push	r27
 814:	ef 93       	push	r30
 816:	ff 93       	push	r31
	if(Action_Spi != NULL){
 818:	e0 91 8d 00 	lds	r30, 0x008D	; 0x80008d <Action_Spi>
 81c:	f0 91 8e 00 	lds	r31, 0x008E	; 0x80008e <Action_Spi+0x1>
 820:	30 97       	sbiw	r30, 0x00	; 0
 822:	11 f0       	breq	.+4      	; 0x828 <__DATA_REGION_LENGTH__+0x28>
		u8 reveivedData = SPI->SPDR;
 824:	8f b1       	in	r24, 0x0f	; 15
		Action_Spi(reveivedData);
 826:	09 95       	icall
	}
 828:	ff 91       	pop	r31
 82a:	ef 91       	pop	r30
 82c:	bf 91       	pop	r27
 82e:	af 91       	pop	r26
 830:	9f 91       	pop	r25
 832:	8f 91       	pop	r24
 834:	7f 91       	pop	r23
 836:	6f 91       	pop	r22
 838:	5f 91       	pop	r21
 83a:	4f 91       	pop	r20
 83c:	3f 91       	pop	r19
 83e:	2f 91       	pop	r18
 840:	0f 90       	pop	r0
 842:	0f be       	out	0x3f, r0	; 63
 844:	0f 90       	pop	r0
 846:	1f 90       	pop	r1
 848:	18 95       	reti

0000084a <__vector_11>:
 84a:	1f 92       	push	r1
 84c:	0f 92       	push	r0
 84e:	0f b6       	in	r0, 0x3f	; 63
 850:	0f 92       	push	r0
 852:	11 24       	eor	r1, r1
 854:	2f 93       	push	r18
 856:	3f 93       	push	r19
 858:	4f 93       	push	r20
 85a:	5f 93       	push	r21
 85c:	6f 93       	push	r22
 85e:	7f 93       	push	r23
 860:	8f 93       	push	r24
 862:	9f 93       	push	r25
 864:	af 93       	push	r26
 866:	bf 93       	push	r27
 868:	ef 93       	push	r30
 86a:	ff 93       	push	r31
 86c:	80 91 93 00 	lds	r24, 0x0093	; 0x800093 <Action_Timer>
 870:	90 91 94 00 	lds	r25, 0x0094	; 0x800094 <Action_Timer+0x1>
 874:	89 2b       	or	r24, r25
 876:	89 f1       	breq	.+98     	; 0x8da <__stack+0x7b>
 878:	80 91 8f 00 	lds	r24, 0x008F	; 0x80008f <counter.1685>
 87c:	90 91 90 00 	lds	r25, 0x0090	; 0x800090 <counter.1685+0x1>
 880:	a0 91 91 00 	lds	r26, 0x0091	; 0x800091 <counter.1685+0x2>
 884:	b0 91 92 00 	lds	r27, 0x0092	; 0x800092 <counter.1685+0x3>
 888:	01 96       	adiw	r24, 0x01	; 1
 88a:	a1 1d       	adc	r26, r1
 88c:	b1 1d       	adc	r27, r1
 88e:	80 93 8f 00 	sts	0x008F, r24	; 0x80008f <counter.1685>
 892:	90 93 90 00 	sts	0x0090, r25	; 0x800090 <counter.1685+0x1>
 896:	a0 93 91 00 	sts	0x0091, r26	; 0x800091 <counter.1685+0x2>
 89a:	b0 93 92 00 	sts	0x0092, r27	; 0x800092 <counter.1685+0x3>
 89e:	40 91 9b 00 	lds	r20, 0x009B	; 0x80009b <numOverflows>
 8a2:	50 91 9c 00 	lds	r21, 0x009C	; 0x80009c <numOverflows+0x1>
 8a6:	60 91 9d 00 	lds	r22, 0x009D	; 0x80009d <numOverflows+0x2>
 8aa:	70 91 9e 00 	lds	r23, 0x009E	; 0x80009e <numOverflows+0x3>
 8ae:	84 17       	cp	r24, r20
 8b0:	95 07       	cpc	r25, r21
 8b2:	a6 07       	cpc	r26, r22
 8b4:	b7 07       	cpc	r27, r23
 8b6:	89 f4       	brne	.+34     	; 0x8da <__stack+0x7b>
 8b8:	80 91 97 00 	lds	r24, 0x0097	; 0x800097 <remainingCounts>
 8bc:	81 95       	neg	r24
 8be:	82 bf       	out	0x32, r24	; 50
 8c0:	10 92 8f 00 	sts	0x008F, r1	; 0x80008f <counter.1685>
 8c4:	10 92 90 00 	sts	0x0090, r1	; 0x800090 <counter.1685+0x1>
 8c8:	10 92 91 00 	sts	0x0091, r1	; 0x800091 <counter.1685+0x2>
 8cc:	10 92 92 00 	sts	0x0092, r1	; 0x800092 <counter.1685+0x3>
 8d0:	e0 91 93 00 	lds	r30, 0x0093	; 0x800093 <Action_Timer>
 8d4:	f0 91 94 00 	lds	r31, 0x0094	; 0x800094 <Action_Timer+0x1>
 8d8:	09 95       	icall
 8da:	ff 91       	pop	r31
 8dc:	ef 91       	pop	r30
 8de:	bf 91       	pop	r27
 8e0:	af 91       	pop	r26
 8e2:	9f 91       	pop	r25
 8e4:	8f 91       	pop	r24
 8e6:	7f 91       	pop	r23
 8e8:	6f 91       	pop	r22
 8ea:	5f 91       	pop	r21
 8ec:	4f 91       	pop	r20
 8ee:	3f 91       	pop	r19
 8f0:	2f 91       	pop	r18
 8f2:	0f 90       	pop	r0
 8f4:	0f be       	out	0x3f, r0	; 63
 8f6:	0f 90       	pop	r0
 8f8:	1f 90       	pop	r1
 8fa:	18 95       	reti

000008fc <__vector_10>:
 8fc:	1f 92       	push	r1
 8fe:	0f 92       	push	r0
 900:	0f b6       	in	r0, 0x3f	; 63
 902:	0f 92       	push	r0
 904:	11 24       	eor	r1, r1
 906:	2f 93       	push	r18
 908:	3f 93       	push	r19
 90a:	4f 93       	push	r20
 90c:	5f 93       	push	r21
 90e:	6f 93       	push	r22
 910:	7f 93       	push	r23
 912:	8f 93       	push	r24
 914:	9f 93       	push	r25
 916:	af 93       	push	r26
 918:	bf 93       	push	r27
 91a:	ef 93       	push	r30
 91c:	ff 93       	push	r31
 91e:	e0 91 95 00 	lds	r30, 0x0095	; 0x800095 <Action_Timer+0x2>
 922:	f0 91 96 00 	lds	r31, 0x0096	; 0x800096 <Action_Timer+0x3>
 926:	30 97       	sbiw	r30, 0x00	; 0
 928:	09 f0       	breq	.+2      	; 0x92c <__vector_10+0x30>
 92a:	09 95       	icall
 92c:	ff 91       	pop	r31
 92e:	ef 91       	pop	r30
 930:	bf 91       	pop	r27
 932:	af 91       	pop	r26
 934:	9f 91       	pop	r25
 936:	8f 91       	pop	r24
 938:	7f 91       	pop	r23
 93a:	6f 91       	pop	r22
 93c:	5f 91       	pop	r21
 93e:	4f 91       	pop	r20
 940:	3f 91       	pop	r19
 942:	2f 91       	pop	r18
 944:	0f 90       	pop	r0
 946:	0f be       	out	0x3f, r0	; 63
 948:	0f 90       	pop	r0
 94a:	1f 90       	pop	r1
 94c:	18 95       	reti

0000094e <M_TIMER1_void_Init>:
	*/
	TIMER1_BASE-> TCCR1B = (TIMER1_BASE-> TCCR1B & 0xBF) | (RISING << 6);
	/* Initial Value for Timer1 */
	TIMER1_BASE->TCNT1 = 0;
	/* Initial Value for the input capture register */
	TIMER1_BASE->ICR1 = 0;
 94e:	fc 01       	movw	r30, r24
 950:	81 81       	ldd	r24, Z+1	; 0x01
 952:	80 93 af 00 	sts	0x00AF, r24	; 0x8000af <prescaler>
 956:	80 81       	ld	r24, Z
 958:	88 23       	and	r24, r24
 95a:	19 f0       	breq	.+6      	; 0x962 <M_TIMER1_void_Init+0x14>
 95c:	8f 30       	cpi	r24, 0x0F	; 15
 95e:	21 f0       	breq	.+8      	; 0x968 <M_TIMER1_void_Init+0x1a>
 960:	08 95       	ret
 962:	8c e0       	ldi	r24, 0x0C	; 12
 964:	8f bd       	out	0x2f, r24	; 47
 966:	08 95       	ret
 968:	82 81       	ldd	r24, Z+2	; 0x02
 96a:	90 e0       	ldi	r25, 0x00	; 0
 96c:	9c 01       	movw	r18, r24
 96e:	00 24       	eor	r0, r0
 970:	36 95       	lsr	r19
 972:	27 95       	ror	r18
 974:	07 94       	ror	r0
 976:	36 95       	lsr	r19
 978:	27 95       	ror	r18
 97a:	07 94       	ror	r0
 97c:	32 2f       	mov	r19, r18
 97e:	20 2d       	mov	r18, r0
 980:	82 95       	swap	r24
 982:	92 95       	swap	r25
 984:	90 7f       	andi	r25, 0xF0	; 240
 986:	98 27       	eor	r25, r24
 988:	80 7f       	andi	r24, 0xF0	; 240
 98a:	98 27       	eor	r25, r24
 98c:	82 2b       	or	r24, r18
 98e:	83 60       	ori	r24, 0x03	; 3
 990:	8f bd       	out	0x2f, r24	; 47
 992:	88 e1       	ldi	r24, 0x18	; 24
 994:	8e bd       	out	0x2e, r24	; 46
 996:	08 95       	ret

00000998 <M_TIMER1_void_start>:
 998:	8e b5       	in	r24, 0x2e	; 46
 99a:	88 7f       	andi	r24, 0xF8	; 248
 99c:	8e bd       	out	0x2e, r24	; 46
 99e:	9e b5       	in	r25, 0x2e	; 46
 9a0:	80 91 af 00 	lds	r24, 0x00AF	; 0x8000af <prescaler>
 9a4:	89 2b       	or	r24, r25
 9a6:	8e bd       	out	0x2e, r24	; 46
 9a8:	08 95       	ret

000009aa <M_TIMER1_void_IntEnable>:
 9aa:	81 11       	cpse	r24, r1
 9ac:	04 c0       	rjmp	.+8      	; 0x9b6 <M_TIMER1_void_IntEnable+0xc>
 9ae:	89 b7       	in	r24, 0x39	; 57
 9b0:	84 60       	ori	r24, 0x04	; 4
 9b2:	89 bf       	out	0x39, r24	; 57
 9b4:	08 95       	ret
 9b6:	81 30       	cpi	r24, 0x01	; 1
 9b8:	21 f4       	brne	.+8      	; 0x9c2 <M_TIMER1_void_IntEnable+0x18>
 9ba:	89 b7       	in	r24, 0x39	; 57
 9bc:	80 61       	ori	r24, 0x10	; 16
 9be:	89 bf       	out	0x39, r24	; 57
 9c0:	08 95       	ret
 9c2:	83 30       	cpi	r24, 0x03	; 3
 9c4:	19 f4       	brne	.+6      	; 0x9cc <M_TIMER1_void_IntEnable+0x22>
 9c6:	89 b7       	in	r24, 0x39	; 57
 9c8:	80 62       	ori	r24, 0x20	; 32
 9ca:	89 bf       	out	0x39, r24	; 57
 9cc:	08 95       	ret

000009ce <M_TIMER1_void_setCallBack>:
 9ce:	61 11       	cpse	r22, r1
 9d0:	05 c0       	rjmp	.+10     	; 0x9dc <M_TIMER1_void_setCallBack+0xe>
 9d2:	90 93 a4 00 	sts	0x00A4, r25	; 0x8000a4 <Action_Timer+0x1>
 9d6:	80 93 a3 00 	sts	0x00A3, r24	; 0x8000a3 <Action_Timer>
 9da:	08 95       	ret
 9dc:	61 30       	cpi	r22, 0x01	; 1
 9de:	29 f4       	brne	.+10     	; 0x9ea <M_TIMER1_void_setCallBack+0x1c>
 9e0:	90 93 a6 00 	sts	0x00A6, r25	; 0x8000a6 <Action_Timer+0x3>
 9e4:	80 93 a5 00 	sts	0x00A5, r24	; 0x8000a5 <Action_Timer+0x2>
 9e8:	08 95       	ret
 9ea:	63 30       	cpi	r22, 0x03	; 3
 9ec:	21 f4       	brne	.+8      	; 0x9f6 <M_TIMER1_void_setCallBack+0x28>
 9ee:	90 93 aa 00 	sts	0x00AA, r25	; 0x8000aa <Action_Timer+0x7>
 9f2:	80 93 a9 00 	sts	0x00A9, r24	; 0x8000a9 <Action_Timer+0x6>
 9f6:	08 95       	ret

000009f8 <M_TIMER1_void_getInputCaptureValue>:
 9f8:	86 b5       	in	r24, 0x26	; 38
 9fa:	97 b5       	in	r25, 0x27	; 39
 9fc:	08 95       	ret

000009fe <M_TIMER1_void_setEdgeDetectionType>:
 9fe:	2e b5       	in	r18, 0x2e	; 46
 a00:	30 e4       	ldi	r19, 0x40	; 64
 a02:	83 9f       	mul	r24, r19
 a04:	c0 01       	movw	r24, r0
 a06:	11 24       	eor	r1, r1
 a08:	2f 7b       	andi	r18, 0xBF	; 191
 a0a:	82 2b       	or	r24, r18
 a0c:	8e bd       	out	0x2e, r24	; 46
 a0e:	08 95       	ret

00000a10 <M_TIMER1_void_clearTimerValue>:
 a10:	1d bc       	out	0x2d, r1	; 45
 a12:	1c bc       	out	0x2c, r1	; 44
 a14:	08 95       	ret

00000a16 <__vector_9>:
	
	freq = g_timePeriod * tickTime;
	return freq;
}

ISR(TIMER1_OVF_vect){
 a16:	1f 92       	push	r1
 a18:	0f 92       	push	r0
 a1a:	0f b6       	in	r0, 0x3f	; 63
 a1c:	0f 92       	push	r0
 a1e:	11 24       	eor	r1, r1
 a20:	2f 93       	push	r18
 a22:	3f 93       	push	r19
 a24:	4f 93       	push	r20
 a26:	5f 93       	push	r21
 a28:	6f 93       	push	r22
 a2a:	7f 93       	push	r23
 a2c:	8f 93       	push	r24
 a2e:	9f 93       	push	r25
 a30:	af 93       	push	r26
 a32:	bf 93       	push	r27
 a34:	cf 93       	push	r28
 a36:	df 93       	push	r29
 a38:	ef 93       	push	r30
 a3a:	ff 93       	push	r31
	Action_Timer[0]();
 a3c:	c3 ea       	ldi	r28, 0xA3	; 163
 a3e:	d0 e0       	ldi	r29, 0x00	; 0
 a40:	e8 81       	ld	r30, Y
 a42:	f9 81       	ldd	r31, Y+1	; 0x01
 a44:	09 95       	icall
	numOverflows++;
 a46:	80 91 ab 00 	lds	r24, 0x00AB	; 0x8000ab <numOverflows>
 a4a:	90 91 ac 00 	lds	r25, 0x00AC	; 0x8000ac <numOverflows+0x1>
 a4e:	a0 91 ad 00 	lds	r26, 0x00AD	; 0x8000ad <numOverflows+0x2>
 a52:	b0 91 ae 00 	lds	r27, 0x00AE	; 0x8000ae <numOverflows+0x3>
 a56:	01 96       	adiw	r24, 0x01	; 1
 a58:	a1 1d       	adc	r26, r1
 a5a:	b1 1d       	adc	r27, r1
 a5c:	80 93 ab 00 	sts	0x00AB, r24	; 0x8000ab <numOverflows>
 a60:	90 93 ac 00 	sts	0x00AC, r25	; 0x8000ac <numOverflows+0x1>
 a64:	a0 93 ad 00 	sts	0x00AD, r26	; 0x8000ad <numOverflows+0x2>
 a68:	b0 93 ae 00 	sts	0x00AE, r27	; 0x8000ae <numOverflows+0x3>
	static u32 counter = 0;
	if(Action_Timer[0]!= NULL){
 a6c:	e8 81       	ld	r30, Y
 a6e:	f9 81       	ldd	r31, Y+1	; 0x01
 a70:	30 97       	sbiw	r30, 0x00	; 0
 a72:	49 f1       	breq	.+82     	; 0xac6 <__vector_9+0xb0>
		counter++;
 a74:	80 91 9f 00 	lds	r24, 0x009F	; 0x80009f <counter.1744>
 a78:	90 91 a0 00 	lds	r25, 0x00A0	; 0x8000a0 <counter.1744+0x1>
 a7c:	a0 91 a1 00 	lds	r26, 0x00A1	; 0x8000a1 <counter.1744+0x2>
 a80:	b0 91 a2 00 	lds	r27, 0x00A2	; 0x8000a2 <counter.1744+0x3>
 a84:	01 96       	adiw	r24, 0x01	; 1
 a86:	a1 1d       	adc	r26, r1
 a88:	b1 1d       	adc	r27, r1
 a8a:	80 93 9f 00 	sts	0x009F, r24	; 0x80009f <counter.1744>
 a8e:	90 93 a0 00 	sts	0x00A0, r25	; 0x8000a0 <counter.1744+0x1>
 a92:	a0 93 a1 00 	sts	0x00A1, r26	; 0x8000a1 <counter.1744+0x2>
 a96:	b0 93 a2 00 	sts	0x00A2, r27	; 0x8000a2 <counter.1744+0x3>
		if(counter == req_numOverflows){
 a9a:	40 91 b0 00 	lds	r20, 0x00B0	; 0x8000b0 <req_numOverflows>
 a9e:	50 91 b1 00 	lds	r21, 0x00B1	; 0x8000b1 <req_numOverflows+0x1>
 aa2:	60 91 b2 00 	lds	r22, 0x00B2	; 0x8000b2 <req_numOverflows+0x2>
 aa6:	70 91 b3 00 	lds	r23, 0x00B3	; 0x8000b3 <req_numOverflows+0x3>
 aaa:	84 17       	cp	r24, r20
 aac:	95 07       	cpc	r25, r21
 aae:	a6 07       	cpc	r26, r22
 ab0:	b7 07       	cpc	r27, r23
 ab2:	49 f4       	brne	.+18     	; 0xac6 <__vector_9+0xb0>
			//TIMER1_BASE-> = 256 - remainingCounts;
			counter = 0;
 ab4:	10 92 9f 00 	sts	0x009F, r1	; 0x80009f <counter.1744>
 ab8:	10 92 a0 00 	sts	0x00A0, r1	; 0x8000a0 <counter.1744+0x1>
 abc:	10 92 a1 00 	sts	0x00A1, r1	; 0x8000a1 <counter.1744+0x2>
 ac0:	10 92 a2 00 	sts	0x00A2, r1	; 0x8000a2 <counter.1744+0x3>
			Action_Timer[0]();
 ac4:	09 95       	icall
		}
		
	}
}
 ac6:	ff 91       	pop	r31
 ac8:	ef 91       	pop	r30
 aca:	df 91       	pop	r29
 acc:	cf 91       	pop	r28
 ace:	bf 91       	pop	r27
 ad0:	af 91       	pop	r26
 ad2:	9f 91       	pop	r25
 ad4:	8f 91       	pop	r24
 ad6:	7f 91       	pop	r23
 ad8:	6f 91       	pop	r22
 ada:	5f 91       	pop	r21
 adc:	4f 91       	pop	r20
 ade:	3f 91       	pop	r19
 ae0:	2f 91       	pop	r18
 ae2:	0f 90       	pop	r0
 ae4:	0f be       	out	0x3f, r0	; 63
 ae6:	0f 90       	pop	r0
 ae8:	1f 90       	pop	r1
 aea:	18 95       	reti

00000aec <__vector_7>:

ISR(TIMER1_COMPA_vect){
 aec:	1f 92       	push	r1
 aee:	0f 92       	push	r0
 af0:	0f b6       	in	r0, 0x3f	; 63
 af2:	0f 92       	push	r0
 af4:	11 24       	eor	r1, r1
 af6:	2f 93       	push	r18
 af8:	3f 93       	push	r19
 afa:	4f 93       	push	r20
 afc:	5f 93       	push	r21
 afe:	6f 93       	push	r22
 b00:	7f 93       	push	r23
 b02:	8f 93       	push	r24
 b04:	9f 93       	push	r25
 b06:	af 93       	push	r26
 b08:	bf 93       	push	r27
 b0a:	ef 93       	push	r30
 b0c:	ff 93       	push	r31
	if(Action_Timer[1]!= NULL){
 b0e:	e0 91 a5 00 	lds	r30, 0x00A5	; 0x8000a5 <Action_Timer+0x2>
 b12:	f0 91 a6 00 	lds	r31, 0x00A6	; 0x8000a6 <Action_Timer+0x3>
 b16:	30 97       	sbiw	r30, 0x00	; 0
 b18:	09 f0       	breq	.+2      	; 0xb1c <__vector_7+0x30>
		Action_Timer[1]();
 b1a:	09 95       	icall
	}
}
 b1c:	ff 91       	pop	r31
 b1e:	ef 91       	pop	r30
 b20:	bf 91       	pop	r27
 b22:	af 91       	pop	r26
 b24:	9f 91       	pop	r25
 b26:	8f 91       	pop	r24
 b28:	7f 91       	pop	r23
 b2a:	6f 91       	pop	r22
 b2c:	5f 91       	pop	r21
 b2e:	4f 91       	pop	r20
 b30:	3f 91       	pop	r19
 b32:	2f 91       	pop	r18
 b34:	0f 90       	pop	r0
 b36:	0f be       	out	0x3f, r0	; 63
 b38:	0f 90       	pop	r0
 b3a:	1f 90       	pop	r1
 b3c:	18 95       	reti

00000b3e <__vector_6>:


ISR(TIMER1_CAPT_vect){
 b3e:	1f 92       	push	r1
 b40:	0f 92       	push	r0
 b42:	0f b6       	in	r0, 0x3f	; 63
 b44:	0f 92       	push	r0
 b46:	11 24       	eor	r1, r1
 b48:	2f 93       	push	r18
 b4a:	3f 93       	push	r19
 b4c:	4f 93       	push	r20
 b4e:	5f 93       	push	r21
 b50:	6f 93       	push	r22
 b52:	7f 93       	push	r23
 b54:	8f 93       	push	r24
 b56:	9f 93       	push	r25
 b58:	af 93       	push	r26
 b5a:	bf 93       	push	r27
 b5c:	ef 93       	push	r30
 b5e:	ff 93       	push	r31
		if(Action_Timer[3]!= NULL){
 b60:	e0 91 a9 00 	lds	r30, 0x00A9	; 0x8000a9 <Action_Timer+0x6>
 b64:	f0 91 aa 00 	lds	r31, 0x00AA	; 0x8000aa <Action_Timer+0x7>
 b68:	30 97       	sbiw	r30, 0x00	; 0
 b6a:	09 f0       	breq	.+2      	; 0xb6e <__vector_6+0x30>
			Action_Timer[3]();
 b6c:	09 95       	icall
			
			
		}
 b6e:	ff 91       	pop	r31
 b70:	ef 91       	pop	r30
 b72:	bf 91       	pop	r27
 b74:	af 91       	pop	r26
 b76:	9f 91       	pop	r25
 b78:	8f 91       	pop	r24
 b7a:	7f 91       	pop	r23
 b7c:	6f 91       	pop	r22
 b7e:	5f 91       	pop	r21
 b80:	4f 91       	pop	r20
 b82:	3f 91       	pop	r19
 b84:	2f 91       	pop	r18
 b86:	0f 90       	pop	r0
 b88:	0f be       	out	0x3f, r0	; 63
 b8a:	0f 90       	pop	r0
 b8c:	1f 90       	pop	r1
 b8e:	18 95       	reti

00000b90 <__vector_13>:
	//set callback
	Action_Uart[0] = ptrfn;
}

// UART receive interrupt service routine
ISR(USART_RXC_vect) {
 b90:	1f 92       	push	r1
 b92:	0f 92       	push	r0
 b94:	0f b6       	in	r0, 0x3f	; 63
 b96:	0f 92       	push	r0
 b98:	11 24       	eor	r1, r1
 b9a:	2f 93       	push	r18
 b9c:	3f 93       	push	r19
 b9e:	4f 93       	push	r20
 ba0:	5f 93       	push	r21
 ba2:	6f 93       	push	r22
 ba4:	7f 93       	push	r23
 ba6:	8f 93       	push	r24
 ba8:	9f 93       	push	r25
 baa:	af 93       	push	r26
 bac:	bf 93       	push	r27
 bae:	ef 93       	push	r30
 bb0:	ff 93       	push	r31
	 u8 receivedData = UDR; // Read the received data
 bb2:	8c b1       	in	r24, 0x0c	; 12
	if(Action_Uart[0] != NULL){
 bb4:	e0 91 b4 00 	lds	r30, 0x00B4	; 0x8000b4 <Action_Uart>
 bb8:	f0 91 b5 00 	lds	r31, 0x00B5	; 0x8000b5 <Action_Uart+0x1>
 bbc:	30 97       	sbiw	r30, 0x00	; 0
 bbe:	09 f0       	breq	.+2      	; 0xbc2 <__vector_13+0x32>
		Action_Uart[0](receivedData);
 bc0:	09 95       	icall
	}
 bc2:	ff 91       	pop	r31
 bc4:	ef 91       	pop	r30
 bc6:	bf 91       	pop	r27
 bc8:	af 91       	pop	r26
 bca:	9f 91       	pop	r25
 bcc:	8f 91       	pop	r24
 bce:	7f 91       	pop	r23
 bd0:	6f 91       	pop	r22
 bd2:	5f 91       	pop	r21
 bd4:	4f 91       	pop	r20
 bd6:	3f 91       	pop	r19
 bd8:	2f 91       	pop	r18
 bda:	0f 90       	pop	r0
 bdc:	0f be       	out	0x3f, r0	; 63
 bde:	0f 90       	pop	r0
 be0:	1f 90       	pop	r1
 be2:	18 95       	reti

00000be4 <__fixunssfsi>:
 be4:	0e 94 8e 06 	call	0xd1c	; 0xd1c <__fp_splitA>
 be8:	88 f0       	brcs	.+34     	; 0xc0c <__fixunssfsi+0x28>
 bea:	9f 57       	subi	r25, 0x7F	; 127
 bec:	98 f0       	brcs	.+38     	; 0xc14 <__fixunssfsi+0x30>
 bee:	b9 2f       	mov	r27, r25
 bf0:	99 27       	eor	r25, r25
 bf2:	b7 51       	subi	r27, 0x17	; 23
 bf4:	b0 f0       	brcs	.+44     	; 0xc22 <__fixunssfsi+0x3e>
 bf6:	e1 f0       	breq	.+56     	; 0xc30 <__fixunssfsi+0x4c>
 bf8:	66 0f       	add	r22, r22
 bfa:	77 1f       	adc	r23, r23
 bfc:	88 1f       	adc	r24, r24
 bfe:	99 1f       	adc	r25, r25
 c00:	1a f0       	brmi	.+6      	; 0xc08 <__fixunssfsi+0x24>
 c02:	ba 95       	dec	r27
 c04:	c9 f7       	brne	.-14     	; 0xbf8 <__fixunssfsi+0x14>
 c06:	14 c0       	rjmp	.+40     	; 0xc30 <__fixunssfsi+0x4c>
 c08:	b1 30       	cpi	r27, 0x01	; 1
 c0a:	91 f0       	breq	.+36     	; 0xc30 <__fixunssfsi+0x4c>
 c0c:	0e 94 a8 06 	call	0xd50	; 0xd50 <__fp_zero>
 c10:	b1 e0       	ldi	r27, 0x01	; 1
 c12:	08 95       	ret
 c14:	0c 94 a8 06 	jmp	0xd50	; 0xd50 <__fp_zero>
 c18:	67 2f       	mov	r22, r23
 c1a:	78 2f       	mov	r23, r24
 c1c:	88 27       	eor	r24, r24
 c1e:	b8 5f       	subi	r27, 0xF8	; 248
 c20:	39 f0       	breq	.+14     	; 0xc30 <__fixunssfsi+0x4c>
 c22:	b9 3f       	cpi	r27, 0xF9	; 249
 c24:	cc f3       	brlt	.-14     	; 0xc18 <__fixunssfsi+0x34>
 c26:	86 95       	lsr	r24
 c28:	77 95       	ror	r23
 c2a:	67 95       	ror	r22
 c2c:	b3 95       	inc	r27
 c2e:	d9 f7       	brne	.-10     	; 0xc26 <__fixunssfsi+0x42>
 c30:	3e f4       	brtc	.+14     	; 0xc40 <__fixunssfsi+0x5c>
 c32:	90 95       	com	r25
 c34:	80 95       	com	r24
 c36:	70 95       	com	r23
 c38:	61 95       	neg	r22
 c3a:	7f 4f       	sbci	r23, 0xFF	; 255
 c3c:	8f 4f       	sbci	r24, 0xFF	; 255
 c3e:	9f 4f       	sbci	r25, 0xFF	; 255
 c40:	08 95       	ret

00000c42 <__floatunsisf>:
 c42:	e8 94       	clt
 c44:	09 c0       	rjmp	.+18     	; 0xc58 <__floatsisf+0x12>

00000c46 <__floatsisf>:
 c46:	97 fb       	bst	r25, 7
 c48:	3e f4       	brtc	.+14     	; 0xc58 <__floatsisf+0x12>
 c4a:	90 95       	com	r25
 c4c:	80 95       	com	r24
 c4e:	70 95       	com	r23
 c50:	61 95       	neg	r22
 c52:	7f 4f       	sbci	r23, 0xFF	; 255
 c54:	8f 4f       	sbci	r24, 0xFF	; 255
 c56:	9f 4f       	sbci	r25, 0xFF	; 255
 c58:	99 23       	and	r25, r25
 c5a:	a9 f0       	breq	.+42     	; 0xc86 <__floatsisf+0x40>
 c5c:	f9 2f       	mov	r31, r25
 c5e:	96 e9       	ldi	r25, 0x96	; 150
 c60:	bb 27       	eor	r27, r27
 c62:	93 95       	inc	r25
 c64:	f6 95       	lsr	r31
 c66:	87 95       	ror	r24
 c68:	77 95       	ror	r23
 c6a:	67 95       	ror	r22
 c6c:	b7 95       	ror	r27
 c6e:	f1 11       	cpse	r31, r1
 c70:	f8 cf       	rjmp	.-16     	; 0xc62 <__floatsisf+0x1c>
 c72:	fa f4       	brpl	.+62     	; 0xcb2 <__floatsisf+0x6c>
 c74:	bb 0f       	add	r27, r27
 c76:	11 f4       	brne	.+4      	; 0xc7c <__floatsisf+0x36>
 c78:	60 ff       	sbrs	r22, 0
 c7a:	1b c0       	rjmp	.+54     	; 0xcb2 <__floatsisf+0x6c>
 c7c:	6f 5f       	subi	r22, 0xFF	; 255
 c7e:	7f 4f       	sbci	r23, 0xFF	; 255
 c80:	8f 4f       	sbci	r24, 0xFF	; 255
 c82:	9f 4f       	sbci	r25, 0xFF	; 255
 c84:	16 c0       	rjmp	.+44     	; 0xcb2 <__floatsisf+0x6c>
 c86:	88 23       	and	r24, r24
 c88:	11 f0       	breq	.+4      	; 0xc8e <__floatsisf+0x48>
 c8a:	96 e9       	ldi	r25, 0x96	; 150
 c8c:	11 c0       	rjmp	.+34     	; 0xcb0 <__floatsisf+0x6a>
 c8e:	77 23       	and	r23, r23
 c90:	21 f0       	breq	.+8      	; 0xc9a <__floatsisf+0x54>
 c92:	9e e8       	ldi	r25, 0x8E	; 142
 c94:	87 2f       	mov	r24, r23
 c96:	76 2f       	mov	r23, r22
 c98:	05 c0       	rjmp	.+10     	; 0xca4 <__floatsisf+0x5e>
 c9a:	66 23       	and	r22, r22
 c9c:	71 f0       	breq	.+28     	; 0xcba <__floatsisf+0x74>
 c9e:	96 e8       	ldi	r25, 0x86	; 134
 ca0:	86 2f       	mov	r24, r22
 ca2:	70 e0       	ldi	r23, 0x00	; 0
 ca4:	60 e0       	ldi	r22, 0x00	; 0
 ca6:	2a f0       	brmi	.+10     	; 0xcb2 <__floatsisf+0x6c>
 ca8:	9a 95       	dec	r25
 caa:	66 0f       	add	r22, r22
 cac:	77 1f       	adc	r23, r23
 cae:	88 1f       	adc	r24, r24
 cb0:	da f7       	brpl	.-10     	; 0xca8 <__floatsisf+0x62>
 cb2:	88 0f       	add	r24, r24
 cb4:	96 95       	lsr	r25
 cb6:	87 95       	ror	r24
 cb8:	97 f9       	bld	r25, 7
 cba:	08 95       	ret

00000cbc <__fp_inf>:
 cbc:	97 f9       	bld	r25, 7
 cbe:	9f 67       	ori	r25, 0x7F	; 127
 cc0:	80 e8       	ldi	r24, 0x80	; 128
 cc2:	70 e0       	ldi	r23, 0x00	; 0
 cc4:	60 e0       	ldi	r22, 0x00	; 0
 cc6:	08 95       	ret

00000cc8 <__fp_nan>:
 cc8:	9f ef       	ldi	r25, 0xFF	; 255
 cca:	80 ec       	ldi	r24, 0xC0	; 192
 ccc:	08 95       	ret

00000cce <__fp_pscA>:
 cce:	00 24       	eor	r0, r0
 cd0:	0a 94       	dec	r0
 cd2:	16 16       	cp	r1, r22
 cd4:	17 06       	cpc	r1, r23
 cd6:	18 06       	cpc	r1, r24
 cd8:	09 06       	cpc	r0, r25
 cda:	08 95       	ret

00000cdc <__fp_pscB>:
 cdc:	00 24       	eor	r0, r0
 cde:	0a 94       	dec	r0
 ce0:	12 16       	cp	r1, r18
 ce2:	13 06       	cpc	r1, r19
 ce4:	14 06       	cpc	r1, r20
 ce6:	05 06       	cpc	r0, r21
 ce8:	08 95       	ret

00000cea <__fp_round>:
 cea:	09 2e       	mov	r0, r25
 cec:	03 94       	inc	r0
 cee:	00 0c       	add	r0, r0
 cf0:	11 f4       	brne	.+4      	; 0xcf6 <__fp_round+0xc>
 cf2:	88 23       	and	r24, r24
 cf4:	52 f0       	brmi	.+20     	; 0xd0a <__fp_round+0x20>
 cf6:	bb 0f       	add	r27, r27
 cf8:	40 f4       	brcc	.+16     	; 0xd0a <__fp_round+0x20>
 cfa:	bf 2b       	or	r27, r31
 cfc:	11 f4       	brne	.+4      	; 0xd02 <__fp_round+0x18>
 cfe:	60 ff       	sbrs	r22, 0
 d00:	04 c0       	rjmp	.+8      	; 0xd0a <__fp_round+0x20>
 d02:	6f 5f       	subi	r22, 0xFF	; 255
 d04:	7f 4f       	sbci	r23, 0xFF	; 255
 d06:	8f 4f       	sbci	r24, 0xFF	; 255
 d08:	9f 4f       	sbci	r25, 0xFF	; 255
 d0a:	08 95       	ret

00000d0c <__fp_split3>:
 d0c:	57 fd       	sbrc	r21, 7
 d0e:	90 58       	subi	r25, 0x80	; 128
 d10:	44 0f       	add	r20, r20
 d12:	55 1f       	adc	r21, r21
 d14:	59 f0       	breq	.+22     	; 0xd2c <__fp_splitA+0x10>
 d16:	5f 3f       	cpi	r21, 0xFF	; 255
 d18:	71 f0       	breq	.+28     	; 0xd36 <__fp_splitA+0x1a>
 d1a:	47 95       	ror	r20

00000d1c <__fp_splitA>:
 d1c:	88 0f       	add	r24, r24
 d1e:	97 fb       	bst	r25, 7
 d20:	99 1f       	adc	r25, r25
 d22:	61 f0       	breq	.+24     	; 0xd3c <__fp_splitA+0x20>
 d24:	9f 3f       	cpi	r25, 0xFF	; 255
 d26:	79 f0       	breq	.+30     	; 0xd46 <__fp_splitA+0x2a>
 d28:	87 95       	ror	r24
 d2a:	08 95       	ret
 d2c:	12 16       	cp	r1, r18
 d2e:	13 06       	cpc	r1, r19
 d30:	14 06       	cpc	r1, r20
 d32:	55 1f       	adc	r21, r21
 d34:	f2 cf       	rjmp	.-28     	; 0xd1a <__fp_split3+0xe>
 d36:	46 95       	lsr	r20
 d38:	f1 df       	rcall	.-30     	; 0xd1c <__fp_splitA>
 d3a:	08 c0       	rjmp	.+16     	; 0xd4c <__fp_splitA+0x30>
 d3c:	16 16       	cp	r1, r22
 d3e:	17 06       	cpc	r1, r23
 d40:	18 06       	cpc	r1, r24
 d42:	99 1f       	adc	r25, r25
 d44:	f1 cf       	rjmp	.-30     	; 0xd28 <__fp_splitA+0xc>
 d46:	86 95       	lsr	r24
 d48:	71 05       	cpc	r23, r1
 d4a:	61 05       	cpc	r22, r1
 d4c:	08 94       	sec
 d4e:	08 95       	ret

00000d50 <__fp_zero>:
 d50:	e8 94       	clt

00000d52 <__fp_szero>:
 d52:	bb 27       	eor	r27, r27
 d54:	66 27       	eor	r22, r22
 d56:	77 27       	eor	r23, r23
 d58:	cb 01       	movw	r24, r22
 d5a:	97 f9       	bld	r25, 7
 d5c:	08 95       	ret

00000d5e <__mulsf3>:
 d5e:	0e 94 c2 06 	call	0xd84	; 0xd84 <__mulsf3x>
 d62:	0c 94 75 06 	jmp	0xcea	; 0xcea <__fp_round>
 d66:	0e 94 67 06 	call	0xcce	; 0xcce <__fp_pscA>
 d6a:	38 f0       	brcs	.+14     	; 0xd7a <__mulsf3+0x1c>
 d6c:	0e 94 6e 06 	call	0xcdc	; 0xcdc <__fp_pscB>
 d70:	20 f0       	brcs	.+8      	; 0xd7a <__mulsf3+0x1c>
 d72:	95 23       	and	r25, r21
 d74:	11 f0       	breq	.+4      	; 0xd7a <__mulsf3+0x1c>
 d76:	0c 94 5e 06 	jmp	0xcbc	; 0xcbc <__fp_inf>
 d7a:	0c 94 64 06 	jmp	0xcc8	; 0xcc8 <__fp_nan>
 d7e:	11 24       	eor	r1, r1
 d80:	0c 94 a9 06 	jmp	0xd52	; 0xd52 <__fp_szero>

00000d84 <__mulsf3x>:
 d84:	0e 94 86 06 	call	0xd0c	; 0xd0c <__fp_split3>
 d88:	70 f3       	brcs	.-36     	; 0xd66 <__mulsf3+0x8>

00000d8a <__mulsf3_pse>:
 d8a:	95 9f       	mul	r25, r21
 d8c:	c1 f3       	breq	.-16     	; 0xd7e <__mulsf3+0x20>
 d8e:	95 0f       	add	r25, r21
 d90:	50 e0       	ldi	r21, 0x00	; 0
 d92:	55 1f       	adc	r21, r21
 d94:	62 9f       	mul	r22, r18
 d96:	f0 01       	movw	r30, r0
 d98:	72 9f       	mul	r23, r18
 d9a:	bb 27       	eor	r27, r27
 d9c:	f0 0d       	add	r31, r0
 d9e:	b1 1d       	adc	r27, r1
 da0:	63 9f       	mul	r22, r19
 da2:	aa 27       	eor	r26, r26
 da4:	f0 0d       	add	r31, r0
 da6:	b1 1d       	adc	r27, r1
 da8:	aa 1f       	adc	r26, r26
 daa:	64 9f       	mul	r22, r20
 dac:	66 27       	eor	r22, r22
 dae:	b0 0d       	add	r27, r0
 db0:	a1 1d       	adc	r26, r1
 db2:	66 1f       	adc	r22, r22
 db4:	82 9f       	mul	r24, r18
 db6:	22 27       	eor	r18, r18
 db8:	b0 0d       	add	r27, r0
 dba:	a1 1d       	adc	r26, r1
 dbc:	62 1f       	adc	r22, r18
 dbe:	73 9f       	mul	r23, r19
 dc0:	b0 0d       	add	r27, r0
 dc2:	a1 1d       	adc	r26, r1
 dc4:	62 1f       	adc	r22, r18
 dc6:	83 9f       	mul	r24, r19
 dc8:	a0 0d       	add	r26, r0
 dca:	61 1d       	adc	r22, r1
 dcc:	22 1f       	adc	r18, r18
 dce:	74 9f       	mul	r23, r20
 dd0:	33 27       	eor	r19, r19
 dd2:	a0 0d       	add	r26, r0
 dd4:	61 1d       	adc	r22, r1
 dd6:	23 1f       	adc	r18, r19
 dd8:	84 9f       	mul	r24, r20
 dda:	60 0d       	add	r22, r0
 ddc:	21 1d       	adc	r18, r1
 dde:	82 2f       	mov	r24, r18
 de0:	76 2f       	mov	r23, r22
 de2:	6a 2f       	mov	r22, r26
 de4:	11 24       	eor	r1, r1
 de6:	9f 57       	subi	r25, 0x7F	; 127
 de8:	50 40       	sbci	r21, 0x00	; 0
 dea:	9a f0       	brmi	.+38     	; 0xe12 <__mulsf3_pse+0x88>
 dec:	f1 f0       	breq	.+60     	; 0xe2a <__mulsf3_pse+0xa0>
 dee:	88 23       	and	r24, r24
 df0:	4a f0       	brmi	.+18     	; 0xe04 <__mulsf3_pse+0x7a>
 df2:	ee 0f       	add	r30, r30
 df4:	ff 1f       	adc	r31, r31
 df6:	bb 1f       	adc	r27, r27
 df8:	66 1f       	adc	r22, r22
 dfa:	77 1f       	adc	r23, r23
 dfc:	88 1f       	adc	r24, r24
 dfe:	91 50       	subi	r25, 0x01	; 1
 e00:	50 40       	sbci	r21, 0x00	; 0
 e02:	a9 f7       	brne	.-22     	; 0xdee <__mulsf3_pse+0x64>
 e04:	9e 3f       	cpi	r25, 0xFE	; 254
 e06:	51 05       	cpc	r21, r1
 e08:	80 f0       	brcs	.+32     	; 0xe2a <__mulsf3_pse+0xa0>
 e0a:	0c 94 5e 06 	jmp	0xcbc	; 0xcbc <__fp_inf>
 e0e:	0c 94 a9 06 	jmp	0xd52	; 0xd52 <__fp_szero>
 e12:	5f 3f       	cpi	r21, 0xFF	; 255
 e14:	e4 f3       	brlt	.-8      	; 0xe0e <__mulsf3_pse+0x84>
 e16:	98 3e       	cpi	r25, 0xE8	; 232
 e18:	d4 f3       	brlt	.-12     	; 0xe0e <__mulsf3_pse+0x84>
 e1a:	86 95       	lsr	r24
 e1c:	77 95       	ror	r23
 e1e:	67 95       	ror	r22
 e20:	b7 95       	ror	r27
 e22:	f7 95       	ror	r31
 e24:	e7 95       	ror	r30
 e26:	9f 5f       	subi	r25, 0xFF	; 255
 e28:	c1 f7       	brne	.-16     	; 0xe1a <__mulsf3_pse+0x90>
 e2a:	fe 2b       	or	r31, r30
 e2c:	88 0f       	add	r24, r24
 e2e:	91 1d       	adc	r25, r1
 e30:	96 95       	lsr	r25
 e32:	87 95       	ror	r24
 e34:	97 f9       	bld	r25, 7
 e36:	08 95       	ret

00000e38 <__itoa_ncheck>:
 e38:	bb 27       	eor	r27, r27
 e3a:	4a 30       	cpi	r20, 0x0A	; 10
 e3c:	31 f4       	brne	.+12     	; 0xe4a <__itoa_ncheck+0x12>
 e3e:	99 23       	and	r25, r25
 e40:	22 f4       	brpl	.+8      	; 0xe4a <__itoa_ncheck+0x12>
 e42:	bd e2       	ldi	r27, 0x2D	; 45
 e44:	90 95       	com	r25
 e46:	81 95       	neg	r24
 e48:	9f 4f       	sbci	r25, 0xFF	; 255
 e4a:	0c 94 28 07 	jmp	0xe50	; 0xe50 <__utoa_common>

00000e4e <__utoa_ncheck>:
 e4e:	bb 27       	eor	r27, r27

00000e50 <__utoa_common>:
 e50:	fb 01       	movw	r30, r22
 e52:	55 27       	eor	r21, r21
 e54:	aa 27       	eor	r26, r26
 e56:	88 0f       	add	r24, r24
 e58:	99 1f       	adc	r25, r25
 e5a:	aa 1f       	adc	r26, r26
 e5c:	a4 17       	cp	r26, r20
 e5e:	10 f0       	brcs	.+4      	; 0xe64 <__utoa_common+0x14>
 e60:	a4 1b       	sub	r26, r20
 e62:	83 95       	inc	r24
 e64:	50 51       	subi	r21, 0x10	; 16
 e66:	b9 f7       	brne	.-18     	; 0xe56 <__utoa_common+0x6>
 e68:	a0 5d       	subi	r26, 0xD0	; 208
 e6a:	aa 33       	cpi	r26, 0x3A	; 58
 e6c:	08 f0       	brcs	.+2      	; 0xe70 <__utoa_common+0x20>
 e6e:	a9 5d       	subi	r26, 0xD9	; 217
 e70:	a1 93       	st	Z+, r26
 e72:	00 97       	sbiw	r24, 0x00	; 0
 e74:	79 f7       	brne	.-34     	; 0xe54 <__utoa_common+0x4>
 e76:	b1 11       	cpse	r27, r1
 e78:	b1 93       	st	Z+, r27
 e7a:	11 92       	st	Z+, r1
 e7c:	cb 01       	movw	r24, r22
 e7e:	0c 94 41 07 	jmp	0xe82	; 0xe82 <strrev>

00000e82 <strrev>:
 e82:	dc 01       	movw	r26, r24
 e84:	fc 01       	movw	r30, r24
 e86:	67 2f       	mov	r22, r23
 e88:	71 91       	ld	r23, Z+
 e8a:	77 23       	and	r23, r23
 e8c:	e1 f7       	brne	.-8      	; 0xe86 <strrev+0x4>
 e8e:	32 97       	sbiw	r30, 0x02	; 2
 e90:	04 c0       	rjmp	.+8      	; 0xe9a <strrev+0x18>
 e92:	7c 91       	ld	r23, X
 e94:	6d 93       	st	X+, r22
 e96:	70 83       	st	Z, r23
 e98:	62 91       	ld	r22, -Z
 e9a:	ae 17       	cp	r26, r30
 e9c:	bf 07       	cpc	r27, r31
 e9e:	c8 f3       	brcs	.-14     	; 0xe92 <strrev+0x10>
 ea0:	08 95       	ret

00000ea2 <_exit>:
 ea2:	f8 94       	cli

00000ea4 <__stop_program>:
 ea4:	ff cf       	rjmp	.-2      	; 0xea4 <__stop_program>
